   1              		.cpu arm926ej-s
   2              		.fpu softvfp
   3              		.eabi_attribute 20, 1
   4              		.eabi_attribute 21, 1
   5              		.eabi_attribute 23, 3
   6              		.eabi_attribute 24, 1
   7              		.eabi_attribute 25, 1
   8              		.eabi_attribute 26, 1
   9              		.eabi_attribute 30, 6
  10              		.eabi_attribute 34, 0
  11              		.eabi_attribute 18, 4
  12              		.file	"AR0330.c"
  13              		.text
  14              	.Ltext0:
  15              		.cfi_sections	.debug_frame
  16              		.section	.data.AR0330_OTPMVsettingsV5,"aw",%progbits
  17              		.align	2
  20              	AR0330_OTPMVsettingsV5:
  21 0000 D23E     		.short	16082
  22 0002 4601     		.short	326
  23 0004 DA3E     		.short	16090
  24 0006 BC88     		.short	-30532
  25 0008 DC3E     		.short	16092
  26 000a 63AA     		.short	-21917
  27 000c 5E30     		.short	12382
  28 000e A000     		.short	160
  29              		.section	.data.AR0330_SetOtherRegs,"aw",%progbits
  30              		.align	2
  33              	AR0330_SetOtherRegs:
  34 0000 1A30     		.short	12314
  35 0002 5900     		.short	89
  36 0004 1A30     		.short	12314
  37 0006 5800     		.short	88
  38 0008 2A30     		.short	12330
  39 000a 0400     		.short	4
  40 000c 2C30     		.short	12332
  41 000e 0200     		.short	2
  42 0010 2E30     		.short	12334
  43 0012 0100     		.short	1
  44 0014 3030     		.short	12336
  45 0016 2000     		.short	32
  46 0018 3630     		.short	12342
  47 001a 0800     		.short	8
  48 001c 3830     		.short	12344
  49 001e 0100     		.short	1
  50 0020 AC31     		.short	12716
  51 0022 0808     		.short	2056
  52 0024 AE31     		.short	12718
  53 0026 0202     		.short	514
  54 0028 B031     		.short	12720
  55 002a 2800     		.short	40
  56 002c B231     		.short	12722
  57 002e 0E00     		.short	14
  58 0030 B431     		.short	12724
  59 0032 775F     		.short	24439
  60 0034 B631     		.short	12726
  61 0036 9952     		.short	21145
  62 0038 B831     		.short	12728
  63 003a 8E40     		.short	16526
  64 003c BA31     		.short	12730
  65 003e 0C03     		.short	780
  66 0040 BC31     		.short	12732
  67 0042 0A80     		.short	-32758
  68 0044 0230     		.short	12290
  69 0046 1602     		.short	534
  70 0048 0430     		.short	12292
  71 004a 4603     		.short	838
  72 004c 0630     		.short	12294
  73 004e F503     		.short	1013
  74 0050 0830     		.short	12296
  75 0052 C505     		.short	1477
  76 0054 0A30     		.short	12298
  77 0056 0805     		.short	1288
  78 0058 0C30     		.short	12300
  79 005a DA04     		.short	1242
  80 005c 1230     		.short	12306
  81 005e 0403     		.short	772
  82 0060 1430     		.short	12308
  83 0062 0000     		.short	0
  84 0064 A230     		.short	12450
  85 0066 0100     		.short	1
  86 0068 A630     		.short	12454
  87 006a 0100     		.short	1
  88 006c 8C30     		.short	12428
  89 006e 1602     		.short	534
  90 0070 8A30     		.short	12426
  91 0072 4603     		.short	838
  92 0074 9030     		.short	12432
  93 0076 F503     		.short	1013
  94 0078 8E30     		.short	12430
  95 007a C505     		.short	1477
  96 007c AA30     		.short	12458
  97 007e 0805     		.short	1288
  98 0080 3E30     		.short	12350
  99 0082 DA04     		.short	1242
 100 0084 1630     		.short	12310
 101 0086 0403     		.short	772
 102 0088 1830     		.short	12312
 103 008a 0000     		.short	0
 104 008c AE30     		.short	12462
 105 008e 0100     		.short	1
 106 0090 A830     		.short	12456
 107 0092 0100     		.short	1
 108 0094 4030     		.short	12352
 109 0096 0000     		.short	0
 110 0098 4230     		.short	12354
 111 009a 3001     		.short	304
 112 009c BA30     		.short	12474
 113 009e 2C00     		.short	44
 114 00a0 E031     		.short	12768
 115 00a2 0303     		.short	771
 116 00a4 6430     		.short	12388
 117 00a6 0218     		.short	6146
 118 00a8 D23E     		.short	16082
 119 00aa 4601     		.short	326
 120 00ac D43E     		.short	16084
 121 00ae 6C8F     		.short	-28820
 122 00b0 D63E     		.short	16086
 123 00b2 CC66     		.short	26316
 124 00b4 D83E     		.short	16088
 125 00b6 428C     		.short	-29630
 126 00b8 DA3E     		.short	16090
 127 00ba BC88     		.short	-30532
 128 00bc DC3E     		.short	16092
 129 00be 63AA     		.short	-21917
 130 00c0 5E30     		.short	12382
 131 00c2 A000     		.short	160
 132              		.section	.data.AR0330_setPLLRges1Lane,"aw",%progbits
 133              		.align	2
 136              	AR0330_setPLLRges1Lane:
 137 0000 AE31     		.short	12718
 138 0002 0102     		.short	513
 139 0004 2C30     		.short	12332
 140 0006 0200     		.short	2
 141 0008 2E30     		.short	12334
 142 000a 0200     		.short	2
 143 000c 3030     		.short	12336
 144 000e 3100     		.short	49
 145              		.section	.data.AR0330_setPLLRges2Lane,"aw",%progbits
 146              		.align	2
 149              	AR0330_setPLLRges2Lane:
 150 0000 AE31     		.short	12718
 151 0002 0202     		.short	514
 152 0004 2C30     		.short	12332
 153 0006 0200     		.short	2
 154 0008 2E30     		.short	12334
 155 000a 0400     		.short	4
 156 000c 3030     		.short	12336
 157 000e 6200     		.short	98
 158              		.section	.data.AR0330_setPLLRges4Lane,"aw",%progbits
 159              		.align	2
 162              	AR0330_setPLLRges4Lane:
 163 0000 2C30     		.short	12332
 164 0002 0100     		.short	1
 165 0004 2E30     		.short	12334
 166 0006 0400     		.short	4
 167 0008 3030     		.short	12336
 168 000a 6200     		.short	98
 169              		.section	.data.test_pattern_setting,"aw",%progbits
 170              		.align	2
 173              	test_pattern_setting:
 174 0000 7030     		.short	12400
 175 0002 0100     		.short	1
 176              		.section	.data.sensor_default_regs_OTPM_V5,"aw",%progbits
 177              		.align	2
 180              	sensor_default_regs_OTPM_V5:
 181 0000 1A30     		.short	12314
 182 0002 5900     		.short	89
 183 0004 FFFF     		.short	-1
 184 0006 6400     		.short	100
 185 0008 5230     		.short	12370
 186 000a 14A1     		.short	-24300
 187 000c 4A30     		.short	12362
 188 000e 7000     		.short	112
 189 0010 FFFF     		.short	-1
 190 0012 3200     		.short	50
 191 0014 AE31     		.short	12718
 192 0016 0202     		.short	514
 193 0018 1A30     		.short	12314
 194 001a 5C00     		.short	92
 195 001c FFFF     		.short	-1
 196 001e 3200     		.short	50
 197 0020 6430     		.short	12388
 198 0022 0218     		.short	6146
 199 0024 7830     		.short	12408
 200 0026 0100     		.short	1
 201 0028 4630     		.short	12358
 202 002a 3840     		.short	16440
 203 002c 4830     		.short	12360
 204 002e 8084     		.short	-31616
 205 0030 E031     		.short	12768
 206 0032 0302     		.short	515
 207 0034 D23E     		.short	16082
 208 0036 4601     		.short	326
 209 0038 DA3E     		.short	16090
 210 003a BC88     		.short	-30532
 211 003c DC3E     		.short	16092
 212 003e 63AA     		.short	-21917
 213 0040 5E30     		.short	12382
 214 0042 A000     		.short	160
 215 0044 1A30     		.short	12314
 216 0046 C010     		.short	4288
 217 0048 2A30     		.short	12330
 218 004a 0500     		.short	5
 219 004c 2C30     		.short	12332
 220 004e 0200     		.short	2
 221 0050 2E30     		.short	12334
 222 0052 0400     		.short	4
 223 0054 3030     		.short	12336
 224 0056 6200     		.short	98
 225 0058 3630     		.short	12342
 226 005a 1000     		.short	16
 227 005c 3830     		.short	12344
 228 005e 0100     		.short	1
 229 0060 AC31     		.short	12716
 230 0062 0A0A     		.short	2570
 231 0064 B031     		.short	12720
 232 0066 2400     		.short	36
 233 0068 B231     		.short	12722
 234 006a 0C00     		.short	12
 235 006c B431     		.short	12724
 236 006e 4326     		.short	9795
 237 0070 B631     		.short	12726
 238 0072 4E11     		.short	4430
 239 0074 B831     		.short	12728
 240 0076 4820     		.short	8264
 241 0078 BA31     		.short	12730
 242 007a 8601     		.short	390
 243 007c BC31     		.short	12732
 244 007e 0580     		.short	-32763
 245 0080 BE31     		.short	12734
 246 0082 0320     		.short	8195
 247 0084 1A30     		.short	12314
 248 0086 D010     		.short	4304
 249              		.section	.data.sensor_720p_regs,"aw",%progbits
 250              		.align	2
 253              	sensor_720p_regs:
 254 0000 1A30     		.short	12314
 255 0002 5800     		.short	88
 256 0004 FFFF     		.short	-1
 257 0006 2200     		.short	34
 258 0008 AE31     		.short	12718
 259 000a 0202     		.short	514
 260 000c 0430     		.short	12292
 261 000e 0002     		.short	512
 262 0010 0830     		.short	12296
 263 0012 FF06     		.short	1791
 264 0014 0230     		.short	12290
 265 0016 9C01     		.short	412
 266 0018 0630     		.short	12294
 267 001a 6B04     		.short	1131
 268 001c A230     		.short	12450
 269 001e 0100     		.short	1
 270 0020 A630     		.short	12454
 271 0022 0100     		.short	1
 272 0024 4030     		.short	12352
 273 0026 0000     		.short	0
 274 0028 0C30     		.short	12300
 275 002a E004     		.short	1248
 276 002c 0A30     		.short	12298
 277 002e 5603     		.short	854
 278 0030 1430     		.short	12308
 279 0032 0000     		.short	0
 280 0034 1230     		.short	12306
 281 0036 1103     		.short	785
 282 0038 4230     		.short	12354
 283 003a 0000     		.short	0
 284 003c BA30     		.short	12474
 285 003e 2C00     		.short	44
 286 0040 D63E     		.short	16086
 287 0042 CC66     		.short	26316
 288 0044 1A30     		.short	12314
 289 0046 5C00     		.short	92
 290              		.section	.data.sensor_1080p_regs,"aw",%progbits
 291              		.align	2
 294              	sensor_1080p_regs:
 295 0000 1A30     		.short	12314
 296 0002 5900     		.short	89
 297 0004 FFFF     		.short	-1
 298 0006 2200     		.short	34
 299 0008 AE31     		.short	12718
 300 000a 0202     		.short	514
 301 000c 0430     		.short	12292
 302 000e 0600     		.short	6
 303 0010 0830     		.short	12296
 304 0012 0509     		.short	2309
 305 0014 0230     		.short	12290
 306 0016 7800     		.short	120
 307 0018 0630     		.short	12294
 308 001a 8705     		.short	1415
 309 001c A230     		.short	12450
 310 001e 0100     		.short	1
 311 0020 A630     		.short	12454
 312 0022 0100     		.short	1
 313 0024 4030     		.short	12352
 314 0026 0000     		.short	0
 315 0028 0C30     		.short	12300
 316 002a E004     		.short	1248
 317 002c 0A30     		.short	12298
 318 002e AD06     		.short	1709
 319 0030 1430     		.short	12308
 320 0032 0000     		.short	0
 321 0034 1230     		.short	12306
 322 0036 4505     		.short	1349
 323 0038 4230     		.short	12354
 324 003a 0000     		.short	0
 325 003c BA30     		.short	12474
 326 003e 2C00     		.short	44
 327 0040 1A30     		.short	12314
 328 0042 5800     		.short	88
 329              		.section	.data.sensor_vga_regs,"aw",%progbits
 330              		.align	2
 333              	sensor_vga_regs:
 334 0000 1A30     		.short	12314
 335 0002 5800     		.short	88
 336 0004 FFFF     		.short	-1
 337 0006 2200     		.short	34
 338 0008 AE31     		.short	12718
 339 000a 0102     		.short	513
 340 000c 0430     		.short	12292
 341 000e C000     		.short	192
 342 0010 0830     		.short	12296
 343 0012 3F03     		.short	831
 344 0014 0230     		.short	12290
 345 0016 3000     		.short	48
 346 0018 0630     		.short	12294
 347 001a 0F02     		.short	527
 348 001c A230     		.short	12450
 349 001e 0100     		.short	1
 350 0020 A630     		.short	12454
 351 0022 0100     		.short	1
 352 0024 4030     		.short	12352
 353 0026 0000     		.short	0
 354 0028 0C30     		.short	12300
 355 002a DA04     		.short	1242
 356 002c 0A30     		.short	12298
 357 002e 9102     		.short	657
 358 0030 1430     		.short	12308
 359 0032 0000     		.short	0
 360 0034 1230     		.short	12306
 361 0036 9002     		.short	656
 362 0038 4230     		.short	12354
 363 003a A102     		.short	673
 364 003c BA30     		.short	12474
 365 003e 2C00     		.short	44
 366 0040 1A30     		.short	12314
 367 0042 1C00     		.short	28
 368              		.section	.text.SensorI2CAccessDelay,"ax",%progbits
 369              		.align	2
 371              	SensorI2CAccessDelay:
 372              	.LFB0:
 373              		.file 1 "../AR0330.c"
   1:../AR0330.c   **** //
   2:../AR0330.c   **** // FILENAME.
   3:../AR0330.c   **** //      Camera_API.c - Camera general API header
   4:../AR0330.c   **** //
   5:../AR0330.c   **** //      $PATH:
   6:../AR0330.c   **** //
   7:../AR0330.c   **** // FUNCTIONAL DESCRIPTION.
   8:../AR0330.c   **** //
   9:../AR0330.c   **** //
  10:../AR0330.c   **** //
  11:../AR0330.c   **** // MODIFICATION HISTORY.
  12:../AR0330.c   **** //      2015/06/07      inital
  13:../AR0330.c   **** //
  14:../AR0330.c   **** // NOTICE.
  15:../AR0330.c   **** //      Copyright (C) 2015-2025 Dragon All Rights Reserved.
  16:../AR0330.c   **** //
  17:../AR0330.c   **** 
  18:../AR0330.c   **** #include <cyu3system.h>
  19:../AR0330.c   **** #include <cyu3os.h>
  20:../AR0330.c   **** #include <cyu3dma.h>
  21:../AR0330.c   **** #include <cyu3error.h>
  22:../AR0330.c   **** #include <cyu3uart.h>
  23:../AR0330.c   **** #include <cyu3i2c.h>
  24:../AR0330.c   **** #include <cyu3types.h>
  25:../AR0330.c   **** #include <cyu3gpio.h>
  26:../AR0330.c   **** #include <cyu3utils.h>
  27:../AR0330.c   **** #include <cyu3mipicsi.h>
  28:../AR0330.c   **** 
  29:../AR0330.c   **** #include "AR0330.h"
  30:../AR0330.c   **** 
  31:../AR0330.c   **** #define  SEQUNSER_A
  32:../AR0330.c   **** #define regval_list reg_list_a16_d16
  33:../AR0330.c   **** #define REG_DLY  0xffff
  34:../AR0330.c   **** 
  35:../AR0330.c   **** 
  36:../AR0330.c   **** 
  37:../AR0330.c   **** // from TI driver
  38:../AR0330.c   **** static struct regval_list AR0330_OTPMVsettingsV5[] =
  39:../AR0330.c   **** {
  40:../AR0330.c   ****     {0x3ED2, 0x0146},
  41:../AR0330.c   ****     {0x3EDA, 0x88BC},
  42:../AR0330.c   ****     {0x3EDC, 0xAA63},
  43:../AR0330.c   ****     {0x305E, 0x00A0},
  44:../AR0330.c   **** };
  45:../AR0330.c   **** 
  46:../AR0330.c   **** 
  47:../AR0330.c   **** static struct regval_list AR0330_SetOtherRegs[] =
  48:../AR0330.c   **** {
  49:../AR0330.c   **** 
  50:../AR0330.c   **** 		//PLL_settings (9)
  51:../AR0330.c   **** 		{0x301A, 0x0059},		//RESET_REGISTER = 88
  52:../AR0330.c   **** 		{0x301A, 0x0058},		//RESET_REGISTER = 88
  53:../AR0330.c   **** 		{0x302A, 0x0004},		//VT_PIX_CLK_DIV = 4
  54:../AR0330.c   **** 		{0x302C, 0x0002},		//VT_SYS_CLK_DIV = 2
  55:../AR0330.c   **** 		{0x302E, 0x0001},		//PRE_PLL_CLK_DIV = 1
  56:../AR0330.c   **** 		{0x3030, 0x0020},		//PLL_MULTIPLIER = 32
  57:../AR0330.c   **** 		{0x3036, 0x0008},		//OP_PIX_CLK_DIV = 8
  58:../AR0330.c   **** 		{0x3038, 0x0001},		//OP_SYS_CLK_DIV = 1
  59:../AR0330.c   **** 		{0x31AC, 0x0808},		//DATA_FORMAT_BITS = 2056
  60:../AR0330.c   **** 		{0x31AE, 0x0202},		//SERIAL_FORMAT = 514
  61:../AR0330.c   **** 
  62:../AR0330.c   **** 		//MIPI Port Timing (7)
  63:../AR0330.c   **** //		{0x31B0, 0x0049},     // FRAME_PREAMBLE = 73
  64:../AR0330.c   **** //		{0x31B2, 0x001C},     //LINE_PREAMBLE = 28
  65:../AR0330.c   **** 		{0x31B0, 0x0028},     // FRAME_PREAMBLE = 73
  66:../AR0330.c   **** 		{0x31B2, 0x000E},     //LINE_PREAMBLE = 28
  67:../AR0330.c   **** 		{0x31B4, 0x5F77},     //MIPI_TIMING_0 = 24439
  68:../AR0330.c   **** 		{0x31B6, 0x5299},     //MIPI_TIMING_1 = 21145
  69:../AR0330.c   **** 		{0x31B8, 0x408E},     //MIPI_TIMING_2 = 16526
  70:../AR0330.c   **** 		{0x31BA, 0x030C},     //MIPI_TIMING_3 = 780
  71:../AR0330.c   **** 		{0x31BC, 0x800A},     //MIPI_TIMING_4 = 32778
  72:../AR0330.c   **** 
  73:../AR0330.c   **** 		//Timing_settings (23)
  74:../AR0330.c   **** 		{0x3002, 0x0216},		//Y_ADDR_START = 534
  75:../AR0330.c   **** 		{0x3004, 0x0346},		//X_ADDR_START = 838
  76:../AR0330.c   **** 		{0x3006, 0x03F5},		//Y_ADDR_END = 1013
  77:../AR0330.c   **** 		{0x3008, 0x05C5},		//X_ADDR_END = 1477
  78:../AR0330.c   **** 		{0x300A, 0x0508},		//FRAME_LENGTH_LINES = 2579
  79:../AR0330.c   **** 		{0x300C, 0x04DA},		//LINE_LENGTH_PCK = 1242
  80:../AR0330.c   **** 		{0x3012, 0x0304},		//COARSE_INTEGRATION_TIME = 1210
  81:../AR0330.c   **** 		{0x3014, 0x0000},		//FINE_INTEGRATION_TIME = 0
  82:../AR0330.c   **** 		{0x30A2, 0x0001},		//X_ODD_INC = 1
  83:../AR0330.c   **** 		{0x30A6, 0x0001},		//Y_ODD_INC = 1
  84:../AR0330.c   **** 		{0x308C, 0x0216},		//Y_ADDR_START_CB = 534
  85:../AR0330.c   **** 		{0x308A, 0x0346},		//X_ADDR_START_CB = 838
  86:../AR0330.c   **** 		{0x3090, 0x03F5},		//Y_ADDR_END_CB = 1013
  87:../AR0330.c   **** 		{0x308E, 0x05C5},		//X_ADDR_END_CB = 1477
  88:../AR0330.c   **** 		{0x30AA, 0x0508},		//FRAME_LENGTH_LINES_CB = 2579
  89:../AR0330.c   **** 		{0x303E, 0x04DA},		//LINE_LENGTH_PCK_CB = 1242
  90:../AR0330.c   **** 		{0x3016, 0x0304},		//COARSE_INTEGRATION_TIME_CB = 1554
  91:../AR0330.c   **** 		{0x3018, 0x0000},		//FINE_INTEGRATION_TIME_CB = 0
  92:../AR0330.c   **** 		{0x30AE, 0x0001},		//X_ODD_INC_CB = 1
  93:../AR0330.c   **** 		{0x30A8, 0x0001},		//Y_ODD_INC_CB = 1
  94:../AR0330.c   **** 		{0x3040, 0x0000},		//READ_MODE = 0
  95:../AR0330.c   **** 		{0x3042, 0x0130},		//EXTRA_DELAY = 85
  96:../AR0330.c   **** 		{0x30BA, 0x002C},		//DIGITAL_CTRL = 44
  97:../AR0330.c   **** 
  98:../AR0330.c   **** 
  99:../AR0330.c   **** 		//Recommended Configuration (9)
 100:../AR0330.c   **** 		{0x31E0, 0x0303},
 101:../AR0330.c   **** 		{0x3064, 0x1802},
 102:../AR0330.c   **** 		{0x3ED2, 0x0146},
 103:../AR0330.c   **** 		{0x3ED4, 0x8F6C},
 104:../AR0330.c   **** 		{0x3ED6, 0x66CC},
 105:../AR0330.c   **** 		{0x3ED8, 0x8C42},
 106:../AR0330.c   **** 		{0x3EDA, 0x88BC},
 107:../AR0330.c   **** 		{0x3EDC, 0xAA63},
 108:../AR0330.c   **** 		{0x305E, 0x00A0},
 109:../AR0330.c   **** };
 110:../AR0330.c   **** 
 111:../AR0330.c   **** /*
 112:../AR0330.c   **** static struct regval_list AR0330_SetOtherRegs[] =
 113:../AR0330.c   **** {
 114:../AR0330.c   **** 
 115:../AR0330.c   **** 		//PLL_settings (9)
 116:../AR0330.c   **** 		{0x301A, 0x0059},		//RESET_REGISTER = 88
 117:../AR0330.c   **** 		{0x301A, 0x0058},		//RESET_REGISTER = 88
 118:../AR0330.c   **** 		{0x302A, 0x0006},		//VT_PIX_CLK_DIV = 4
 119:../AR0330.c   **** 		{0x302C, 0x0002},		//VT_SYS_CLK_DIV = 2
 120:../AR0330.c   **** 		{0x302E, 0x0004},		//PRE_PLL_CLK_DIV = 1
 121:../AR0330.c   **** 		{0x3030, 0x0062},		//PLL_MULTIPLIER = 32
 122:../AR0330.c   **** 		{0x3036, 0x000C},		//OP_PIX_CLK_DIV = 8
 123:../AR0330.c   **** 		{0x3038, 0x0001},		//OP_SYS_CLK_DIV = 1
 124:../AR0330.c   **** 		{0x31AC, 0x0C0C},		//DATA_FORMAT_BITS = 2056
 125:../AR0330.c   **** 		{0x31AE, 0x0202},		//SERIAL_FORMAT = 514
 126:../AR0330.c   **** 
 127:../AR0330.c   **** 		//MIPI Port Timing (7)
 128:../AR0330.c   **** 		{0x31B0, 0x0028},     // FRAME_PREAMBLE = 73
 129:../AR0330.c   **** 		{0x31B2, 0x000E},     //LINE_PREAMBLE = 28
 130:../AR0330.c   **** 		{0x31B4, 0x2743},     //MIPI_TIMING_0 = 24439
 131:../AR0330.c   **** 		{0x31B6, 0x114E},     //MIPI_TIMING_1 = 21145
 132:../AR0330.c   **** 		{0x31B8, 0x2049},     //MIPI_TIMING_2 = 16526
 133:../AR0330.c   **** 		{0x31BA, 0x0186},     //MIPI_TIMING_3 = 780
 134:../AR0330.c   **** 		{0x31BC, 0x8005},     //MIPI_TIMING_4 = 32778
 135:../AR0330.c   **** 
 136:../AR0330.c   **** 		//Timing_settings (23)
 137:../AR0330.c   **** 		{0x3002, 0x0204},		//Y_ADDR_START = 534
 138:../AR0330.c   **** 		{0x3004, 0x00C6},		//X_ADDR_START = 838
 139:../AR0330.c   **** 		{0x3006, 0x0521},		//Y_ADDR_END = 1013
 140:../AR0330.c   **** 		{0x3008, 0x0845},		//X_ADDR_END = 1477
 141:../AR0330.c   **** 		{0x300A, 0x0508},		//FRAME_LENGTH_LINES = 2579
 142:../AR0330.c   **** 		{0x300C, 0x04DA},		//LINE_LENGTH_PCK = 1242
 143:../AR0330.c   **** 		{0x3012, 0x0284},		//COARSE_INTEGRATION_TIME = 1210
 144:../AR0330.c   **** 		{0x3014, 0x0000},		//FINE_INTEGRATION_TIME = 0
 145:../AR0330.c   **** 		{0x30A2, 0x0001},		//X_ODD_INC = 1
 146:../AR0330.c   **** 		{0x30A6, 0x0001},		//Y_ODD_INC = 1
 147:../AR0330.c   **** 		{0x308C, 0x0006},		//Y_ADDR_START_CB = 534
 148:../AR0330.c   **** 		{0x308A, 0x0006},		//X_ADDR_START_CB = 838
 149:../AR0330.c   **** 		{0x3090, 0x0605},		//Y_ADDR_END_CB = 1013
 150:../AR0330.c   **** 		{0x308E, 0x0905},		//X_ADDR_END_CB = 1477
 151:../AR0330.c   **** 		{0x30AA, 0x0A04},		//FRAME_LENGTH_LINES_CB = 2579
 152:../AR0330.c   **** 		{0x303E, 0x04E0},		//LINE_LENGTH_PCK_CB = 1242
 153:../AR0330.c   **** 		{0x3016, 0x0A03},		//COARSE_INTEGRATION_TIME_CB = 1554
 154:../AR0330.c   **** 		{0x3018, 0x0000},		//FINE_INTEGRATION_TIME_CB = 0
 155:../AR0330.c   **** 		{0x30AE, 0x0001},		//X_ODD_INC_CB = 1
 156:../AR0330.c   **** 		{0x30A8, 0x0001},		//Y_ODD_INC_CB = 1
 157:../AR0330.c   **** 		{0x3040, 0x0000},		//READ_MODE = 0
 158:../AR0330.c   **** 		{0x3042, 0x0130},		//EXTRA_DELAY = 85
 159:../AR0330.c   **** 		{0x30BA, 0x002C},		//DIGITAL_CTRL = 44
 160:../AR0330.c   **** 
 161:../AR0330.c   **** 
 162:../AR0330.c   **** 		//Recommended Configuration (9)
 163:../AR0330.c   **** 		{0x31E0, 0x0303},
 164:../AR0330.c   **** 		{0x3064, 0x1802},
 165:../AR0330.c   **** 		{0x3ED2, 0x0146},
 166:../AR0330.c   **** 		{0x3ED4, 0x8F6C},
 167:../AR0330.c   **** 		{0x3ED6, 0x66CC},
 168:../AR0330.c   **** 		{0x3ED8, 0x8C42},
 169:../AR0330.c   **** 		{0x3EDA, 0x88BC},
 170:../AR0330.c   **** 		{0x3EDC, 0xAA63},
 171:../AR0330.c   **** 		{0x305E, 0x00A0},
 172:../AR0330.c   **** };
 173:../AR0330.c   **** */
 174:../AR0330.c   **** 
 175:../AR0330.c   **** // PLL for 1 lane MIPI:
 176:../AR0330.c   **** // 1 x CLK_OP = 2 x CLK_PIX = Pixel Rate
 177:../AR0330.c   **** // (max: 65 Mpixels/se for 12 bits and 76 Mpixel/s for 10 bits)
 178:../AR0330.c   **** static struct regval_list AR0330_setPLLRges1Lane[] =
 179:../AR0330.c   **** {
 180:../AR0330.c   ****     {0x31AE, 0x0201},     // Serial interface, 1 lane MIPI
 181:../AR0330.c   **** //	{0x302C, 0x0004},     // VT_PIX_CLK_DIV
 182:../AR0330.c   **** 	{0x302C, 0x0002},     // VT_PIX_CLK_DIV
 183:../AR0330.c   **** //    {0x302E, 0x0001},     // PRE_PLL_CLK_DIV
 184:../AR0330.c   **** 	{0x302E, 0x0002},     // PRE_PLL_CLK_DIV
 185:../AR0330.c   **** //    {0x3030, 0x0020},     // PLL_MULTIPLIER
 186:../AR0330.c   ****     {0x3030, 49},     // PLL_MULTIPLIER
 187:../AR0330.c   **** };
 188:../AR0330.c   **** 
 189:../AR0330.c   **** 
 190:../AR0330.c   **** 
 191:../AR0330.c   **** // PLL for 2 lane MIPI:
 192:../AR0330.c   **** // 2 x CLK_OP = 2 x CLK_PIX = Pixel Rate (max: 98 Mpixel/s)
 193:../AR0330.c   **** static struct regval_list AR0330_setPLLRges2Lane[] =
 194:../AR0330.c   **** {
 195:../AR0330.c   **** 	{0x31AE, 0x0202},     //SERIAL_FORMAT = 514
 196:../AR0330.c   **** 	{0x302C, 0x0002},     // VT_PIX_CLK_DIV
 197:../AR0330.c   ****     {0x302E, 0x0004},     // PRE_PLL_CLK_DIV
 198:../AR0330.c   ****     {0x3030, 0x0062},     // PLL_MULTIPLIER
 199:../AR0330.c   **** };
 200:../AR0330.c   **** 
 201:../AR0330.c   **** // PLL for 4 lane MIPI:
 202:../AR0330.c   **** // 4 x CLK_OP = 4 x CLK_PIX = Pixel Rate (max: 98 Mpixel/s)
 203:../AR0330.c   **** static struct regval_list AR0330_setPLLRges4Lane[] =
 204:../AR0330.c   **** {
 205:../AR0330.c   ****     {0x302C, 0x0001},     // VT_PIX_CLK_DIV
 206:../AR0330.c   ****     {0x302E, 0x0004},     // PRE_PLL_CLK_DIV
 207:../AR0330.c   ****     {0x3030, 0x0062},     // PLL_MULTIPLIER
 208:../AR0330.c   **** };
 209:../AR0330.c   **** 
 210:../AR0330.c   **** //
 211:../AR0330.c   **** // for customer setting
 212:../AR0330.c   **** //
 213:../AR0330.c   **** static struct regval_list test_pattern_setting[] =
 214:../AR0330.c   **** {
 215:../AR0330.c   ****     {0x3070, 0x0001},     // test pattern mode  (Solid color test pattern)
 216:../AR0330.c   **** 
 217:../AR0330.c   **** };
 218:../AR0330.c   **** 
 219:../AR0330.c   **** //
 220:../AR0330.c   **** // Default Register Setting / PLL Setting
 221:../AR0330.c   **** //
 222:../AR0330.c   **** 
 223:../AR0330.c   **** static struct regval_list sensor_default_regs_OTPM_V5[] =
 224:../AR0330.c   **** {
 225:../AR0330.c   **** 	// Reset Sensor
 226:../AR0330.c   **** 	{0x301A, 0x0059},
 227:../AR0330.c   **** 	{REG_DLY,0x0064},       // just a  delay (no meaning)
 228:../AR0330.c   **** 
 229:../AR0330.c   **** 	{0x3052, 0xA114},
 230:../AR0330.c   **** 	{0x304A, 0x0070},
 231:../AR0330.c   **** 	{REG_DLY,0x0032},       // just a delay (no meaning)
 232:../AR0330.c   **** 
 233:../AR0330.c   **** 	{0x31AE, 0x202	},      //Output Interface Configured to 2lane MIPI
 234:../AR0330.c   **** 	{0x301A, 0x005c	},      //Disable Streaming
 235:../AR0330.c   **** 	{REG_DLY,0x0032},       // just a delay (no meaning)
 236:../AR0330.c   **** 
 237:../AR0330.c   **** 	{0x3064, 0x1802	},
 238:../AR0330.c   **** 	{0x3078,0x0001	},	    //Marker to say that 'Defaults' have been run
 239:../AR0330.c   **** 
 240:../AR0330.c   **** 	//{//Toggle Flash, }on Each Frame
 241:../AR0330.c   **** 	{0x3046, 0x4038	},	    // Enable Flash Pin
 242:../AR0330.c   **** 	{0x3048, 0x8480	},	    // Flash Pulse Length
 243:../AR0330.c   **** 	{0x31E0,0x0203  },
 244:../AR0330.c   **** 
 245:../AR0330.c   **** 	//
 246:../AR0330.c   **** 	// Default Register (OTPM V5)
 247:../AR0330.c   **** 	//
 248:../AR0330.c   **** 	{0x3ED2, 0x0146},
 249:../AR0330.c   **** 	{0x3EDA, 0x88BC},
 250:../AR0330.c   **** 	{0x3EDC, 0xAA63},
 251:../AR0330.c   **** 
 252:../AR0330.c   **** //	{0x3F06, 0x046A},
 253:../AR0330.c   **** 
 254:../AR0330.c   **** 	{0x305E, 0x00A0},
 255:../AR0330.c   **** 
 256:../AR0330.c   **** 	//
 257:../AR0330.c   **** 	// PLL Setting  (TBD)
 258:../AR0330.c   **** 	//
 259:../AR0330.c   **** 	{0x301A, 0x10C0},        // TBD ?
 260:../AR0330.c   **** 
 261:../AR0330.c   **** 	{0x302A, 0x0005},        // vt_pix_clk_div
 262:../AR0330.c   **** 	{0x302C, 0x0002},        // vt_sys_clk_div
 263:../AR0330.c   **** 	{0x302E, 0x0004},        // pre_pll_clk_div
 264:../AR0330.c   **** 	{0x3030, 0x0062},        // pll_multiplier
 265:../AR0330.c   **** 	{0x3036, 0x0010},        // op_pix_clk_div
 266:../AR0330.c   **** 	{0x3038, 0x0001},        // op_sys_clk_div
 267:../AR0330.c   **** 	{0x31AC, 0x0A0A},        // data_format is 10-bit
 268:../AR0330.c   **** 
 269:../AR0330.c   **** 	{0x31B0, 0x0024},        //
 270:../AR0330.c   **** 	{0x31B2, 0x000C},        //
 271:../AR0330.c   **** 	{0x31B4, 0x2643},        //
 272:../AR0330.c   **** 	{0x31B6, 0x114E},        //
 273:../AR0330.c   **** 	{0x31B8, 0x2048},        //
 274:../AR0330.c   **** 	{0x31BA, 0x0186},        //
 275:../AR0330.c   **** 	{0x31BC, 0x8005},        //
 276:../AR0330.c   **** 	{0x31BE, 0x2003},        //
 277:../AR0330.c   **** 
 278:../AR0330.c   **** 
 279:../AR0330.c   **** 
 280:../AR0330.c   **** 	{0x301a, 0x10d0},        // TBD ?
 281:../AR0330.c   **** };
 282:../AR0330.c   **** 
 283:../AR0330.c   **** 
 284:../AR0330.c   **** //
 285:../AR0330.c   **** // 1080p setting
 286:../AR0330.c   **** //
 287:../AR0330.c   **** 
 288:../AR0330.c   **** static struct regval_list sensor_720p_regs[] = {	//720: 1280*720@60fps
 289:../AR0330.c   **** 
 290:../AR0330.c   **** 	{0x301A,0x0058},
 291:../AR0330.c   **** 	{REG_DLY,0x0022},
 292:../AR0330.c   **** 
 293:../AR0330.c   **** 	//{0x31AE,0x0301},
 294:../AR0330.c   **** 	{0x31AE,0x0202},      // dual-lane MIPI
 295:../AR0330.c   **** 
 296:../AR0330.c   **** 	{0x3004,0x0200},      // x address start
 297:../AR0330.c   **** 	{0x3008,0x06ff},      // x address end
 298:../AR0330.c   **** 	{0x3002,0x019c},      // y address start
 299:../AR0330.c   **** 	{0x3006,0x046b},      // y address end
 300:../AR0330.c   **** 	//{0x301A,0x10dc},
 301:../AR0330.c   **** 
 302:../AR0330.c   **** 	{0x30A2,0x0001},      //  x odd inc (No Skip)
 303:../AR0330.c   **** 	{0x30A6,0x0001},      //  y odd inc (No Skip)
 304:../AR0330.c   **** 
 305:../AR0330.c   **** 	{0x3040,0x0000},      //  read mode
 306:../AR0330.c   **** 	{0x300C,0x04E0},      //  the number of pixel clock periods in one line time
 307:../AR0330.c   **** 	{0x300A,0x0356},      //  the number of complete lines(rows) in the frame timing
 308:../AR0330.c   **** 	//{0x300A,0x028e},
 309:../AR0330.c   **** 	{0x3014,0x0000},      //  fine integration time
 310:../AR0330.c   **** 	{0x3012,0x0311},      //  coarse integration time
 311:../AR0330.c   **** 	{0x3042,0x0000},      //  extra delay
 312:../AR0330.c   **** 	{0x30BA,0x002C},      //  (?__?) digital ctrl
 313:../AR0330.c   **** 	// {0x3ED4,0x8F6C},   //  (?__?)
 314:../AR0330.c   **** 	{0x3ED6,0x66CC},      //  (?__?)
 315:../AR0330.c   **** 
 316:../AR0330.c   **** 	// {0x3088,0x80BA},   // ?___?
 317:../AR0330.c   **** 	// {0x3086,0x0253},   // ?___?
 318:../AR0330.c   **** 	//{0x3086,0x0253},
 319:../AR0330.c   **** 
 320:../AR0330.c   **** 	//{0x301A,0x0058}
 321:../AR0330.c   **** 	{0x301A,0x005C}
 322:../AR0330.c   **** };
 323:../AR0330.c   **** 
 324:../AR0330.c   **** 
 325:../AR0330.c   **** static struct regval_list sensor_1080p_regs[] = {    //1080: 1920*1080@30fps EIS
 326:../AR0330.c   **** 
 327:../AR0330.c   **** 	// 2304 X 1296
 328:../AR0330.c   **** 
 329:../AR0330.c   **** 	{0x301A,0x0059},
 330:../AR0330.c   **** 	{REG_DLY,0x0022},
 331:../AR0330.c   **** 
 332:../AR0330.c   **** 	//{0x31AE,0x0301},
 333:../AR0330.c   **** 
 334:../AR0330.c   **** 	{0x31AE,0x0202},      // dual-lane MIPI
 335:../AR0330.c   **** 
 336:../AR0330.c   **** 	{0x3004,0x0006},      // x address start
 337:../AR0330.c   **** 	{0x3008,0x0905},      // x address end
 338:../AR0330.c   **** 	{0x3002,0x0078},      // y address start
 339:../AR0330.c   **** 	{0x3006,0x0587},      // y address end
 340:../AR0330.c   **** 	//{0x301A,0x10dc},
 341:../AR0330.c   **** 
 342:../AR0330.c   **** 	{0x30A2,0x0001},      //  x odd inc (No Skip)
 343:../AR0330.c   **** 	{0x30A6,0x0001},      //  y odd inc (No Skip)
 344:../AR0330.c   **** 
 345:../AR0330.c   **** 	{0x3040,0x0000},      //  read mode
 346:../AR0330.c   **** 	{0x300c,0x04E0},      //  the number of pixel clock periods in one line time
 347:../AR0330.c   **** 	{0x300A,0x06AD},      //  the number of complete lines(rows) in the frame timing
 348:../AR0330.c   **** 	//{0x300A,0x028e},
 349:../AR0330.c   **** 
 350:../AR0330.c   **** 	{0x3014,0x0000},      //  fine integration time
 351:../AR0330.c   **** 	{0x3012,0x0545},      //  coarse integration time
 352:../AR0330.c   **** 	{0x3042,0x0000},      //  extra delay
 353:../AR0330.c   **** 	{0x30BA,0x002c},      //  (?__?) digital ctrl
 354:../AR0330.c   **** 
 355:../AR0330.c   **** 	//{0x3ed4,0x8f6c},
 356:../AR0330.c   **** 	//{0x3ed6,0x66cc},
 357:../AR0330.c   **** 
 358:../AR0330.c   **** 	//{0x3088,0x80BA},
 359:../AR0330.c   **** 	//{0x3086,0xE653},
 360:../AR0330.c   **** 
 361:../AR0330.c   **** 	{0x301A,0x0058}
 362:../AR0330.c   **** };
 363:../AR0330.c   **** 
 364:../AR0330.c   **** 
 365:../AR0330.c   **** //
 366:../AR0330.c   **** // 720p configuration
 367:../AR0330.c   **** //
 368:../AR0330.c   **** 
 369:../AR0330.c   **** //
 370:../AR0330.c   **** //  VGA Configuration
 371:../AR0330.c   **** //
 372:../AR0330.c   **** 
 373:../AR0330.c   **** static struct regval_list sensor_vga_regs[] = { //VGA:  640*480
 374:../AR0330.c   **** 	//DVP_VGA_60fps
 375:../AR0330.c   **** 
 376:../AR0330.c   **** 	{0x301A, 0x0058},
 377:../AR0330.c   **** 	{REG_DLY,0x0022},     // delay
 378:../AR0330.c   **** 
 379:../AR0330.c   **** 	{0x31AE,0x0201},      // one lane MIPI
 380:../AR0330.c   **** 
 381:../AR0330.c   **** 	{0x3004,0x00c0},      // x address start
 382:../AR0330.c   **** //	{0x3008,0x083f},      // x address end
 383:../AR0330.c   ****  	{0x3008,0x033F},      // x address end
 384:../AR0330.c   **** 	{0x3002,0x0030},      // y address start
 385:../AR0330.c   **** //	{0x3006,0x05cf},      // y address end
 386:../AR0330.c   ****   	{0x3006,0x020f},      // y address end
 387:../AR0330.c   **** 	//{0x301A,0x10dc},
 388:../AR0330.c   **** 
 389:../AR0330.c   **** 	{0x30A2,0x0001},      //  x odd inc
 390:../AR0330.c   **** 	{0x30A6,0x0001},      //  y odd inc
 391:../AR0330.c   **** 
 392:../AR0330.c   **** 	{0x3040,0x0000},      //  read mode
 393:../AR0330.c   **** 	{0x300c,0x04da},      //  the number of pixel clock periods in one line time
 394:../AR0330.c   **** 	{0x300A,0x0291},      //  the number of complete lines(rows) in the frame timing
 395:../AR0330.c   **** 	//{0x300A,0x028e},
 396:../AR0330.c   **** 
 397:../AR0330.c   **** 	{0x3014,0x0000},      //  fine integration time
 398:../AR0330.c   **** 	{0x3012,0x0290},      //  coarse integration time
 399:../AR0330.c   **** 	{0x3042,0x02a1},      //  extra delay
 400:../AR0330.c   **** 	{0x30BA,0x002c},      //  (?__?) digital ctrl
 401:../AR0330.c   **** 
 402:../AR0330.c   **** 	{0x301A,0x001C}
 403:../AR0330.c   **** 
 404:../AR0330.c   **** };
 405:../AR0330.c   **** 
 406:../AR0330.c   **** 
 407:../AR0330.c   **** //
 408:../AR0330.c   **** // This function inserts a delay between successful I2C transfers to prevent
 409:../AR0330.c   **** // false errors due to the slave being busy.
 410:../AR0330.c   **** //
 411:../AR0330.c   **** 
 412:../AR0330.c   **** //
 413:../AR0330.c   **** // FUNCTION NAME.
 414:../AR0330.c   **** //      SensorI2CAccessDelay
 415:../AR0330.c   **** //
 416:../AR0330.c   **** // FUNCTIONAL DESCRIPTION.
 417:../AR0330.c   **** //      This function inserts a delay between successful I2C transfers to prevent
 418:../AR0330.c   **** //      false errors due to the slave being busy.
 419:../AR0330.c   **** //
 420:../AR0330.c   **** // ENTRY PARAMETERS.
 421:../AR0330.c   **** //      void
 422:../AR0330.c   **** //
 423:../AR0330.c   **** // EXIT PARAMETERS.
 424:../AR0330.c   **** //      Function Return
 425:../AR0330.c   **** //
 426:../AR0330.c   **** 
 427:../AR0330.c   **** static void
 428:../AR0330.c   **** SensorI2CAccessDelay(
 429:../AR0330.c   ****     CyU3PReturnStatus_t status
 430:../AR0330.c   ****     )
 431:../AR0330.c   **** {
 374              		.loc 1 431 0
 375              		.cfi_startproc
 376              		@ args = 0, pretend = 0, frame = 8
 377              		@ frame_needed = 1, uses_anonymous_args = 0
 378 0000 00482DE9 		stmfd	sp!, {fp, lr}
 379              	.LCFI0:
 380              		.cfi_def_cfa_offset 8
 381              		.cfi_offset 11, -8
 382              		.cfi_offset 14, -4
 383 0004 04B08DE2 		add	fp, sp, #4
 384              	.LCFI1:
 385              		.cfi_def_cfa 11, 4
 386 0008 08D04DE2 		sub	sp, sp, #8
 387 000c 08000BE5 		str	r0, [fp, #-8]
 432:../AR0330.c   ****     //
 433:../AR0330.c   ****     // Add a 10us delay if the I2C operation that preceded this call was successful.
 434:../AR0330.c   ****     //
 435:../AR0330.c   **** 
 436:../AR0330.c   ****     if (status == CY_U3P_SUCCESS)
 388              		.loc 1 436 0
 389 0010 08301BE5 		ldr	r3, [fp, #-8]
 390 0014 000053E3 		cmp	r3, #0
 391 0018 0100001A 		bne	.L1
 437:../AR0330.c   ****     CyU3PBusyWait(10);
 392              		.loc 1 437 0
 393 001c 0A00A0E3 		mov	r0, #10
 394 0020 FEFFFFEB 		bl	CyFx3BusyWait
 395              	.L1:
 438:../AR0330.c   **** }
 396              		.loc 1 438 0
 397 0024 04D04BE2 		sub	sp, fp, #4
 398              		@ sp needed
 399 0028 0088BDE8 		ldmfd	sp!, {fp, pc}
 400              		.cfi_endproc
 401              	.LFE0:
 403              		.section	.rodata
 404              		.align	2
 405              	.LC0:
 406 0000 0D493243 		.ascii	"\015I2C Slave address is not valid!\012\000"
 406      20536C61 
 406      76652061 
 406      64647265 
 406      73732069 
 407 0022 0000     		.align	2
 408              	.LC1:
 409 0024 0D577269 		.ascii	"\015Write Camera REG address =  0x%x%x data = 0x%x%"
 409      74652043 
 409      616D6572 
 409      61205245 
 409      47206164 
 410 0054 78202020 		.ascii	"x   \015\012\000"
 410      0D0A00
 411 005b 00       		.align	2
 412              	.LC2:
 413 005c 0D466169 		.ascii	"\015Failed to write . Error Code = 0x%x  \015\012\000"
 413      6C656420 
 413      746F2077 
 413      72697465 
 413      202E2045 
 414              		.section	.text.SensorWrite2B,"ax",%progbits
 415              		.align	2
 416              		.global	SensorWrite2B
 418              	SensorWrite2B:
 419              	.LFB1:
 439:../AR0330.c   **** 
 440:../AR0330.c   **** //
 441:../AR0330.c   **** // FUNCTION NAME.
 442:../AR0330.c   **** //      SensorWrite2B
 443:../AR0330.c   **** //
 444:../AR0330.c   **** // FUNCTIONAL DESCRIPTION.
 445:../AR0330.c   **** //      Write to an I2C slave with two bytes of data.
 446:../AR0330.c   **** //
 447:../AR0330.c   **** // ENTRY PARAMETERS.
 448:../AR0330.c   **** //      void
 449:../AR0330.c   **** //
 450:../AR0330.c   **** // EXIT PARAMETERS.
 451:../AR0330.c   **** //      Function Return
 452:../AR0330.c   **** //
 453:../AR0330.c   **** 
 454:../AR0330.c   **** CyU3PReturnStatus_t
 455:../AR0330.c   **** SensorWrite2B(
 456:../AR0330.c   ****     uint8_t slaveAddr,
 457:../AR0330.c   ****     uint8_t highAddr,
 458:../AR0330.c   ****     uint8_t lowAddr,
 459:../AR0330.c   ****     uint8_t highData,
 460:../AR0330.c   ****     uint8_t lowData
 461:../AR0330.c   ****     )
 462:../AR0330.c   **** {
 420              		.loc 1 462 0
 421              		.cfi_startproc
 422              		@ args = 4, pretend = 0, frame = 32
 423              		@ frame_needed = 1, uses_anonymous_args = 0
 424 0000 00482DE9 		stmfd	sp!, {fp, lr}
 425              	.LCFI2:
 426              		.cfi_def_cfa_offset 8
 427              		.cfi_offset 11, -8
 428              		.cfi_offset 14, -4
 429 0004 04B08DE2 		add	fp, sp, #4
 430              	.LCFI3:
 431              		.cfi_def_cfa 11, 4
 432 0008 28D04DE2 		sub	sp, sp, #40
 433 000c 1D004BE5 		strb	r0, [fp, #-29]
 434 0010 1E104BE5 		strb	r1, [fp, #-30]
 435 0014 1F204BE5 		strb	r2, [fp, #-31]
 436 0018 20304BE5 		strb	r3, [fp, #-32]
 463:../AR0330.c   ****     CyU3PReturnStatus_t apiRetStatus = CY_U3P_SUCCESS;
 437              		.loc 1 463 0
 438 001c 0030A0E3 		mov	r3, #0
 439 0020 08300BE5 		str	r3, [fp, #-8]
 464:../AR0330.c   ****     CyU3PI2cPreamble_t preamble;
 465:../AR0330.c   ****     uint8_t buf[2];
 466:../AR0330.c   **** 
 467:../AR0330.c   **** 
 468:../AR0330.c   ****     // Validate the I2C slave address.
 469:../AR0330.c   ****     //
 470:../AR0330.c   **** //    if ((slaveAddr != SENSOR_ADDR_WR) && (slaveAddr != I2C_MEMORY_ADDR_WR))
 471:../AR0330.c   ****     if (slaveAddr != SENSOR_ADDR_WR)
 440              		.loc 1 471 0
 441 0024 1D305BE5 		ldrb	r3, [fp, #-29]	@ zero_extendqisi2
 442 0028 200053E3 		cmp	r3, #32
 443 002c 0400000A 		beq	.L4
 472:../AR0330.c   ****     {
 473:../AR0330.c   ****         CyU3PDebugPrint(4, "\rI2C Slave address is not valid!\n");
 444              		.loc 1 473 0
 445 0030 0400A0E3 		mov	r0, #4
 446 0034 BC109FE5 		ldr	r1, .L9
 447 0038 FEFFFFEB 		bl	CyU3PDebugPrint
 474:../AR0330.c   ****         return 1;
 448              		.loc 1 474 0
 449 003c 0130A0E3 		mov	r3, #1
 450 0040 290000EA 		b	.L8
 451              	.L4:
 475:../AR0330.c   ****     }
 476:../AR0330.c   **** 
 477:../AR0330.c   ****     //
 478:../AR0330.c   ****     // Set the parameters for the I2C API access and then call the write API.
 479:../AR0330.c   ****     //
 480:../AR0330.c   ****     preamble.buffer[0] = slaveAddr;
 452              		.loc 1 480 0
 453 0044 1D305BE5 		ldrb	r3, [fp, #-29]
 454 0048 14304BE5 		strb	r3, [fp, #-20]
 481:../AR0330.c   ****     preamble.buffer[1] = highAddr;
 455              		.loc 1 481 0
 456 004c 1E305BE5 		ldrb	r3, [fp, #-30]
 457 0050 13304BE5 		strb	r3, [fp, #-19]
 482:../AR0330.c   ****     preamble.buffer[2] = lowAddr;
 458              		.loc 1 482 0
 459 0054 1F305BE5 		ldrb	r3, [fp, #-31]
 460 0058 12304BE5 		strb	r3, [fp, #-18]
 483:../AR0330.c   ****     preamble.length = 3;            //  Three byte preamble.
 461              		.loc 1 483 0
 462 005c 0330A0E3 		mov	r3, #3
 463 0060 0C304BE5 		strb	r3, [fp, #-12]
 484:../AR0330.c   ****     preamble.ctrlMask = 0x0000;     //  No additional start and stop bits.
 464              		.loc 1 484 0
 465 0064 0030A0E3 		mov	r3, #0
 466 0068 BA304BE1 		strh	r3, [fp, #-10]	@ movhi
 485:../AR0330.c   **** 
 486:../AR0330.c   ****     buf[0] = highData;
 467              		.loc 1 486 0
 468 006c 20305BE5 		ldrb	r3, [fp, #-32]
 469 0070 18304BE5 		strb	r3, [fp, #-24]
 487:../AR0330.c   ****     buf[1] = lowData;
 470              		.loc 1 487 0
 471 0074 0430DBE5 		ldrb	r3, [fp, #4]
 472 0078 17304BE5 		strb	r3, [fp, #-23]
 488:../AR0330.c   **** 
 489:../AR0330.c   ****     apiRetStatus = CyU3PI2cTransmitBytes(&preamble, buf, 2, 0);
 473              		.loc 1 489 0
 474 007c 14204BE2 		sub	r2, fp, #20
 475 0080 18304BE2 		sub	r3, fp, #24
 476 0084 0200A0E1 		mov	r0, r2
 477 0088 0310A0E1 		mov	r1, r3
 478 008c 0220A0E3 		mov	r2, #2
 479 0090 0030A0E3 		mov	r3, #0
 480 0094 FEFFFFEB 		bl	CyU3PI2cTransmitBytes
 481 0098 08000BE5 		str	r0, [fp, #-8]
 490:../AR0330.c   ****     SensorI2CAccessDelay(apiRetStatus);
 482              		.loc 1 490 0
 483 009c 08001BE5 		ldr	r0, [fp, #-8]
 484 00a0 FEFFFFEB 		bl	SensorI2CAccessDelay
 491:../AR0330.c   **** 
 492:../AR0330.c   ****     if (apiRetStatus == CY_U3P_SUCCESS)
 485              		.loc 1 492 0
 486 00a4 08301BE5 		ldr	r3, [fp, #-8]
 487 00a8 000053E3 		cmp	r3, #0
 488 00ac 0900001A 		bne	.L6
 493:../AR0330.c   ****     		CyU3PDebugPrint (4, "\rWrite Camera REG address =  0x%x%x data = 0x%x%x   \r\n", highAddr, lo
 489              		.loc 1 493 0
 490 00b0 1E205BE5 		ldrb	r2, [fp, #-30]	@ zero_extendqisi2
 491 00b4 1F305BE5 		ldrb	r3, [fp, #-31]	@ zero_extendqisi2
 492 00b8 20005BE5 		ldrb	r0, [fp, #-32]	@ zero_extendqisi2
 493 00bc 0410DBE5 		ldrb	r1, [fp, #4]	@ zero_extendqisi2
 494 00c0 00008DE5 		str	r0, [sp]
 495 00c4 04108DE5 		str	r1, [sp, #4]
 496 00c8 0400A0E3 		mov	r0, #4
 497 00cc 28109FE5 		ldr	r1, .L9+4
 498 00d0 FEFFFFEB 		bl	CyU3PDebugPrint
 499 00d4 030000EA 		b	.L7
 500              	.L6:
 494:../AR0330.c   ****     	else
 495:../AR0330.c   ****     		CyU3PDebugPrint (4, "\rFailed to write . Error Code = 0x%x  \r\n",apiRetStatus);
 501              		.loc 1 495 0
 502 00d8 0400A0E3 		mov	r0, #4
 503 00dc 1C109FE5 		ldr	r1, .L9+8
 504 00e0 08201BE5 		ldr	r2, [fp, #-8]
 505 00e4 FEFFFFEB 		bl	CyU3PDebugPrint
 506              	.L7:
 496:../AR0330.c   **** 
 497:../AR0330.c   ****     return apiRetStatus;
 507              		.loc 1 497 0
 508 00e8 08301BE5 		ldr	r3, [fp, #-8]
 509              	.L8:
 498:../AR0330.c   **** }
 510              		.loc 1 498 0
 511 00ec 0300A0E1 		mov	r0, r3
 512 00f0 04D04BE2 		sub	sp, fp, #4
 513              		@ sp needed
 514 00f4 0088BDE8 		ldmfd	sp!, {fp, pc}
 515              	.L10:
 516              		.align	2
 517              	.L9:
 518 00f8 00000000 		.word	.LC0
 519 00fc 24000000 		.word	.LC1
 520 0100 5C000000 		.word	.LC2
 521              		.cfi_endproc
 522              	.LFE1:
 524              		.section	.rodata
 525 0085 000000   		.align	2
 526              	.LC3:
 527 0088 49324320 		.ascii	"I2C Slave address is not valid!\012\000"
 527      536C6176 
 527      65206164 
 527      64726573 
 527      73206973 
 528 00a9 000000   		.align	2
 529              	.LC4:
 530 00ac 4552524F 		.ascii	"ERROR: SensorWrite count > 64\012\000"
 530      523A2053 
 530      656E736F 
 530      72577269 
 530      74652063 
 531              		.section	.text.SensorWrite,"ax",%progbits
 532              		.align	2
 533              		.global	SensorWrite
 535              	SensorWrite:
 536              	.LFB2:
 499:../AR0330.c   **** 
 500:../AR0330.c   **** //
 501:../AR0330.c   **** // FUNCTION NAME.
 502:../AR0330.c   **** //     SensorWrite
 503:../AR0330.c   **** //
 504:../AR0330.c   **** // FUNCTIONAL DESCRIPTION.
 505:../AR0330.c   **** //
 506:../AR0330.c   **** //
 507:../AR0330.c   **** // ENTRY PARAMETERS.
 508:../AR0330.c   **** //      void
 509:../AR0330.c   **** //
 510:../AR0330.c   **** // EXIT PARAMETERS.
 511:../AR0330.c   **** //      Function Return
 512:../AR0330.c   **** //
 513:../AR0330.c   **** 
 514:../AR0330.c   **** CyU3PReturnStatus_t
 515:../AR0330.c   **** SensorWrite(
 516:../AR0330.c   ****     uint8_t slaveAddr,
 517:../AR0330.c   ****     uint8_t highAddr,
 518:../AR0330.c   ****     uint8_t lowAddr,
 519:../AR0330.c   ****     uint8_t count,
 520:../AR0330.c   ****     uint8_t *buf
 521:../AR0330.c   ****     )
 522:../AR0330.c   **** {
 537              		.loc 1 522 0
 538              		.cfi_startproc
 539              		@ args = 4, pretend = 0, frame = 24
 540              		@ frame_needed = 1, uses_anonymous_args = 0
 541 0000 00482DE9 		stmfd	sp!, {fp, lr}
 542              	.LCFI4:
 543              		.cfi_def_cfa_offset 8
 544              		.cfi_offset 11, -8
 545              		.cfi_offset 14, -4
 546 0004 04B08DE2 		add	fp, sp, #4
 547              	.LCFI5:
 548              		.cfi_def_cfa 11, 4
 549 0008 18D04DE2 		sub	sp, sp, #24
 550 000c 15004BE5 		strb	r0, [fp, #-21]
 551 0010 16104BE5 		strb	r1, [fp, #-22]
 552 0014 17204BE5 		strb	r2, [fp, #-23]
 553 0018 18304BE5 		strb	r3, [fp, #-24]
 523:../AR0330.c   ****     CyU3PReturnStatus_t apiRetStatus = CY_U3P_SUCCESS;
 554              		.loc 1 523 0
 555 001c 0030A0E3 		mov	r3, #0
 556 0020 08300BE5 		str	r3, [fp, #-8]
 524:../AR0330.c   ****     CyU3PI2cPreamble_t preamble;
 525:../AR0330.c   **** 
 526:../AR0330.c   ****     //
 527:../AR0330.c   ****     // Validate the I2C slave address.
 528:../AR0330.c   ****     //
 529:../AR0330.c   **** //    if ((slaveAddr != SENSOR_ADDR_WR) && (slaveAddr != I2C_MEMORY_ADDR_WR))
 530:../AR0330.c   **** 	if (slaveAddr != SENSOR_ADDR_WR)
 557              		.loc 1 530 0
 558 0024 15305BE5 		ldrb	r3, [fp, #-21]	@ zero_extendqisi2
 559 0028 200053E3 		cmp	r3, #32
 560 002c 0400000A 		beq	.L12
 531:../AR0330.c   ****     {
 532:../AR0330.c   ****         CyU3PDebugPrint(4, "I2C Slave address is not valid!\n");
 561              		.loc 1 532 0
 562 0030 0400A0E3 		mov	r0, #4
 563 0034 88109FE5 		ldr	r1, .L16
 564 0038 FEFFFFEB 		bl	CyU3PDebugPrint
 533:../AR0330.c   ****         return 1;
 565              		.loc 1 533 0
 566 003c 0130A0E3 		mov	r3, #1
 567 0040 1C0000EA 		b	.L15
 568              	.L12:
 534:../AR0330.c   ****     }
 535:../AR0330.c   **** 
 536:../AR0330.c   ****     if (count > 64)
 569              		.loc 1 536 0
 570 0044 18305BE5 		ldrb	r3, [fp, #-24]	@ zero_extendqisi2
 571 0048 400053E3 		cmp	r3, #64
 572 004c 0400009A 		bls	.L14
 537:../AR0330.c   ****     {
 538:../AR0330.c   ****         CyU3PDebugPrint(4, "ERROR: SensorWrite count > 64\n");
 573              		.loc 1 538 0
 574 0050 0400A0E3 		mov	r0, #4
 575 0054 6C109FE5 		ldr	r1, .L16+4
 576 0058 FEFFFFEB 		bl	CyU3PDebugPrint
 539:../AR0330.c   ****         return 1;
 577              		.loc 1 539 0
 578 005c 0130A0E3 		mov	r3, #1
 579 0060 140000EA 		b	.L15
 580              	.L14:
 540:../AR0330.c   ****     }
 541:../AR0330.c   **** 
 542:../AR0330.c   ****     //
 543:../AR0330.c   ****     // Set up the I2C control parameters and invoke the write API.
 544:../AR0330.c   ****     //
 545:../AR0330.c   ****     preamble.buffer[0] = slaveAddr;
 581              		.loc 1 545 0
 582 0064 15305BE5 		ldrb	r3, [fp, #-21]
 583 0068 14304BE5 		strb	r3, [fp, #-20]
 546:../AR0330.c   ****     preamble.buffer[1] = highAddr;
 584              		.loc 1 546 0
 585 006c 16305BE5 		ldrb	r3, [fp, #-22]
 586 0070 13304BE5 		strb	r3, [fp, #-19]
 547:../AR0330.c   ****     preamble.buffer[2] = lowAddr;
 587              		.loc 1 547 0
 588 0074 17305BE5 		ldrb	r3, [fp, #-23]
 589 0078 12304BE5 		strb	r3, [fp, #-18]
 548:../AR0330.c   ****     preamble.length = 3;
 590              		.loc 1 548 0
 591 007c 0330A0E3 		mov	r3, #3
 592 0080 0C304BE5 		strb	r3, [fp, #-12]
 549:../AR0330.c   ****     preamble.ctrlMask = 0x0000;
 593              		.loc 1 549 0
 594 0084 0030A0E3 		mov	r3, #0
 595 0088 BA304BE1 		strh	r3, [fp, #-10]	@ movhi
 550:../AR0330.c   **** 
 551:../AR0330.c   ****     apiRetStatus = CyU3PI2cTransmitBytes(&preamble, buf, count, 0);
 596              		.loc 1 551 0
 597 008c 18305BE5 		ldrb	r3, [fp, #-24]	@ zero_extendqisi2
 598 0090 14204BE2 		sub	r2, fp, #20
 599 0094 0200A0E1 		mov	r0, r2
 600 0098 04109BE5 		ldr	r1, [fp, #4]
 601 009c 0320A0E1 		mov	r2, r3
 602 00a0 0030A0E3 		mov	r3, #0
 603 00a4 FEFFFFEB 		bl	CyU3PI2cTransmitBytes
 604 00a8 08000BE5 		str	r0, [fp, #-8]
 552:../AR0330.c   ****     SensorI2CAccessDelay(apiRetStatus);
 605              		.loc 1 552 0
 606 00ac 08001BE5 		ldr	r0, [fp, #-8]
 607 00b0 FEFFFFEB 		bl	SensorI2CAccessDelay
 553:../AR0330.c   **** 
 554:../AR0330.c   ****     return apiRetStatus;
 608              		.loc 1 554 0
 609 00b4 08301BE5 		ldr	r3, [fp, #-8]
 610              	.L15:
 555:../AR0330.c   **** }
 611              		.loc 1 555 0
 612 00b8 0300A0E1 		mov	r0, r3
 613 00bc 04D04BE2 		sub	sp, fp, #4
 614              		@ sp needed
 615 00c0 0088BDE8 		ldmfd	sp!, {fp, pc}
 616              	.L17:
 617              		.align	2
 618              	.L16:
 619 00c4 88000000 		.word	.LC3
 620 00c8 AC000000 		.word	.LC4
 621              		.cfi_endproc
 622              	.LFE2:
 624              		.section	.text.SensorRead2B,"ax",%progbits
 625              		.align	2
 626              		.global	SensorRead2B
 628              	SensorRead2B:
 629              	.LFB3:
 556:../AR0330.c   **** 
 557:../AR0330.c   **** //
 558:../AR0330.c   **** // FUNCTION NAME.
 559:../AR0330.c   **** //     SensorRead2B
 560:../AR0330.c   **** //
 561:../AR0330.c   **** // FUNCTIONAL DESCRIPTION.
 562:../AR0330.c   **** //
 563:../AR0330.c   **** //
 564:../AR0330.c   **** // ENTRY PARAMETERS.
 565:../AR0330.c   **** //      void
 566:../AR0330.c   **** //
 567:../AR0330.c   **** // EXIT PARAMETERS.
 568:../AR0330.c   **** //      Function Return
 569:../AR0330.c   **** //
 570:../AR0330.c   **** 
 571:../AR0330.c   **** CyU3PReturnStatus_t
 572:../AR0330.c   **** SensorRead2B(
 573:../AR0330.c   ****     uint8_t slaveAddr,
 574:../AR0330.c   ****     uint8_t highAddr,
 575:../AR0330.c   ****     uint8_t lowAddr,
 576:../AR0330.c   ****     uint8_t *buf
 577:../AR0330.c   ****     )
 578:../AR0330.c   **** {
 630              		.loc 1 578 0
 631              		.cfi_startproc
 632              		@ args = 0, pretend = 0, frame = 24
 633              		@ frame_needed = 1, uses_anonymous_args = 0
 634 0000 00482DE9 		stmfd	sp!, {fp, lr}
 635              	.LCFI6:
 636              		.cfi_def_cfa_offset 8
 637              		.cfi_offset 11, -8
 638              		.cfi_offset 14, -4
 639 0004 04B08DE2 		add	fp, sp, #4
 640              	.LCFI7:
 641              		.cfi_def_cfa 11, 4
 642 0008 18D04DE2 		sub	sp, sp, #24
 643 000c 1C300BE5 		str	r3, [fp, #-28]
 644 0010 0030A0E1 		mov	r3, r0
 645 0014 15304BE5 		strb	r3, [fp, #-21]
 646 0018 0130A0E1 		mov	r3, r1
 647 001c 16304BE5 		strb	r3, [fp, #-22]
 648 0020 0230A0E1 		mov	r3, r2
 649 0024 17304BE5 		strb	r3, [fp, #-23]
 579:../AR0330.c   ****     CyU3PReturnStatus_t apiRetStatus = CY_U3P_SUCCESS;
 650              		.loc 1 579 0
 651 0028 0030A0E3 		mov	r3, #0
 652 002c 08300BE5 		str	r3, [fp, #-8]
 580:../AR0330.c   ****     CyU3PI2cPreamble_t preamble;
 581:../AR0330.c   **** 
 582:../AR0330.c   ****     preamble.buffer[0] = slaveAddr & I2C_SLAVEADDR_MASK;    //  Mask out the transfer type bit.
 653              		.loc 1 582 0
 654 0030 15305BE5 		ldrb	r3, [fp, #-21]
 655 0034 0130C3E3 		bic	r3, r3, #1
 656 0038 FF3003E2 		and	r3, r3, #255
 657 003c 14304BE5 		strb	r3, [fp, #-20]
 583:../AR0330.c   ****     preamble.buffer[1] = (uint8_t) highAddr;
 658              		.loc 1 583 0
 659 0040 16305BE5 		ldrb	r3, [fp, #-22]
 660 0044 13304BE5 		strb	r3, [fp, #-19]
 584:../AR0330.c   ****     preamble.buffer[2] = (uint8_t) lowAddr;
 661              		.loc 1 584 0
 662 0048 17305BE5 		ldrb	r3, [fp, #-23]
 663 004c 12304BE5 		strb	r3, [fp, #-18]
 585:../AR0330.c   ****     preamble.buffer[3] =  (slaveAddr | 0x01);
 664              		.loc 1 585 0
 665 0050 15305BE5 		ldrb	r3, [fp, #-21]
 666 0054 013083E3 		orr	r3, r3, #1
 667 0058 FF3003E2 		and	r3, r3, #255
 668 005c 11304BE5 		strb	r3, [fp, #-17]
 586:../AR0330.c   ****     preamble.length = 4;
 669              		.loc 1 586 0
 670 0060 0430A0E3 		mov	r3, #4
 671 0064 0C304BE5 		strb	r3, [fp, #-12]
 587:../AR0330.c   ****     preamble.ctrlMask = 0x0004;     //  Send start bit after third byte of preamble.
 672              		.loc 1 587 0
 673 0068 0430A0E3 		mov	r3, #4
 674 006c BA304BE1 		strh	r3, [fp, #-10]	@ movhi
 588:../AR0330.c   **** 
 589:../AR0330.c   ****     apiRetStatus = CyU3PI2cReceiveBytes(&preamble, buf, 2, 0);
 675              		.loc 1 589 0
 676 0070 14304BE2 		sub	r3, fp, #20
 677 0074 0300A0E1 		mov	r0, r3
 678 0078 1C101BE5 		ldr	r1, [fp, #-28]
 679 007c 0220A0E3 		mov	r2, #2
 680 0080 0030A0E3 		mov	r3, #0
 681 0084 FEFFFFEB 		bl	CyU3PI2cReceiveBytes
 682 0088 08000BE5 		str	r0, [fp, #-8]
 590:../AR0330.c   ****     SensorI2CAccessDelay(apiRetStatus);
 683              		.loc 1 590 0
 684 008c 08001BE5 		ldr	r0, [fp, #-8]
 685 0090 FEFFFFEB 		bl	SensorI2CAccessDelay
 591:../AR0330.c   **** 
 592:../AR0330.c   ****     return apiRetStatus;
 686              		.loc 1 592 0
 687 0094 08301BE5 		ldr	r3, [fp, #-8]
 593:../AR0330.c   **** }
 688              		.loc 1 593 0
 689 0098 0300A0E1 		mov	r0, r3
 690 009c 04D04BE2 		sub	sp, fp, #4
 691              		@ sp needed
 692 00a0 0088BDE8 		ldmfd	sp!, {fp, pc}
 693              		.cfi_endproc
 694              	.LFE3:
 696              		.section	.text.SensorRead,"ax",%progbits
 697              		.align	2
 698              		.global	SensorRead
 700              	SensorRead:
 701              	.LFB4:
 594:../AR0330.c   **** 
 595:../AR0330.c   **** //
 596:../AR0330.c   **** // FUNCTION NAME.
 597:../AR0330.c   **** //     SensorRead
 598:../AR0330.c   **** //
 599:../AR0330.c   **** // FUNCTIONAL DESCRIPTION.
 600:../AR0330.c   **** //
 601:../AR0330.c   **** //
 602:../AR0330.c   **** // ENTRY PARAMETERS.
 603:../AR0330.c   **** //      void
 604:../AR0330.c   **** //
 605:../AR0330.c   **** // EXIT PARAMETERS.
 606:../AR0330.c   **** //      Function Return
 607:../AR0330.c   **** //
 608:../AR0330.c   **** 
 609:../AR0330.c   **** CyU3PReturnStatus_t SensorRead(
 610:../AR0330.c   ****     uint8_t slaveAddr,
 611:../AR0330.c   ****     uint8_t highAddr,
 612:../AR0330.c   ****     uint8_t lowAddr,
 613:../AR0330.c   ****     uint8_t count,
 614:../AR0330.c   ****     uint8_t *buf
 615:../AR0330.c   ****     )
 616:../AR0330.c   **** {
 702              		.loc 1 616 0
 703              		.cfi_startproc
 704              		@ args = 4, pretend = 0, frame = 24
 705              		@ frame_needed = 1, uses_anonymous_args = 0
 706 0000 00482DE9 		stmfd	sp!, {fp, lr}
 707              	.LCFI8:
 708              		.cfi_def_cfa_offset 8
 709              		.cfi_offset 11, -8
 710              		.cfi_offset 14, -4
 711 0004 04B08DE2 		add	fp, sp, #4
 712              	.LCFI9:
 713              		.cfi_def_cfa 11, 4
 714 0008 18D04DE2 		sub	sp, sp, #24
 715 000c 15004BE5 		strb	r0, [fp, #-21]
 716 0010 16104BE5 		strb	r1, [fp, #-22]
 717 0014 17204BE5 		strb	r2, [fp, #-23]
 718 0018 18304BE5 		strb	r3, [fp, #-24]
 617:../AR0330.c   ****     CyU3PReturnStatus_t apiRetStatus = CY_U3P_SUCCESS;
 719              		.loc 1 617 0
 720 001c 0030A0E3 		mov	r3, #0
 721 0020 08300BE5 		str	r3, [fp, #-8]
 618:../AR0330.c   ****     CyU3PI2cPreamble_t preamble;
 619:../AR0330.c   **** 
 620:../AR0330.c   ****     //
 621:../AR0330.c   ****     // Validate the parameters.
 622:../AR0330.c   ****     //
 623:../AR0330.c   ****     if (slaveAddr != SENSOR_ADDR_RD)
 722              		.loc 1 623 0
 723 0024 15305BE5 		ldrb	r3, [fp, #-21]	@ zero_extendqisi2
 724 0028 210053E3 		cmp	r3, #33
 725 002c 0400000A 		beq	.L21
 624:../AR0330.c   ****     {
 625:../AR0330.c   ****         CyU3PDebugPrint(4, "I2C Slave address is not valid!\n");
 726              		.loc 1 625 0
 727 0030 0400A0E3 		mov	r0, #4
 728 0034 98109FE5 		ldr	r1, .L25
 729 0038 FEFFFFEB 		bl	CyU3PDebugPrint
 626:../AR0330.c   ****         return 1;
 730              		.loc 1 626 0
 731 003c 0130A0E3 		mov	r3, #1
 732 0040 200000EA 		b	.L24
 733              	.L21:
 627:../AR0330.c   ****     }
 628:../AR0330.c   **** 
 629:../AR0330.c   ****     if (count > 64) {
 734              		.loc 1 629 0
 735 0044 18305BE5 		ldrb	r3, [fp, #-24]	@ zero_extendqisi2
 736 0048 400053E3 		cmp	r3, #64
 737 004c 0400009A 		bls	.L23
 630:../AR0330.c   ****         CyU3PDebugPrint(4, "ERROR: SensorWrite count > 64\n");
 738              		.loc 1 630 0
 739 0050 0400A0E3 		mov	r0, #4
 740 0054 7C109FE5 		ldr	r1, .L25+4
 741 0058 FEFFFFEB 		bl	CyU3PDebugPrint
 631:../AR0330.c   ****         return 1;
 742              		.loc 1 631 0
 743 005c 0130A0E3 		mov	r3, #1
 744 0060 180000EA 		b	.L24
 745              	.L23:
 632:../AR0330.c   ****     }
 633:../AR0330.c   **** 
 634:../AR0330.c   ****     preamble.buffer[0] = slaveAddr & I2C_SLAVEADDR_MASK;    //  Mask out the transfer type bit.
 746              		.loc 1 634 0
 747 0064 15305BE5 		ldrb	r3, [fp, #-21]
 748 0068 0130C3E3 		bic	r3, r3, #1
 749 006c FF3003E2 		and	r3, r3, #255
 750 0070 14304BE5 		strb	r3, [fp, #-20]
 635:../AR0330.c   ****     preamble.buffer[1] = highAddr;
 751              		.loc 1 635 0
 752 0074 16305BE5 		ldrb	r3, [fp, #-22]
 753 0078 13304BE5 		strb	r3, [fp, #-19]
 636:../AR0330.c   ****     preamble.buffer[2] = lowAddr;
 754              		.loc 1 636 0
 755 007c 17305BE5 		ldrb	r3, [fp, #-23]
 756 0080 12304BE5 		strb	r3, [fp, #-18]
 637:../AR0330.c   ****     preamble.buffer[3] = slaveAddr;
 757              		.loc 1 637 0
 758 0084 15305BE5 		ldrb	r3, [fp, #-21]
 759 0088 11304BE5 		strb	r3, [fp, #-17]
 638:../AR0330.c   ****     preamble.length = 4;
 760              		.loc 1 638 0
 761 008c 0430A0E3 		mov	r3, #4
 762 0090 0C304BE5 		strb	r3, [fp, #-12]
 639:../AR0330.c   ****     preamble.ctrlMask = 0x0004; //Send start bit after third byte of preamble.
 763              		.loc 1 639 0
 764 0094 0430A0E3 		mov	r3, #4
 765 0098 BA304BE1 		strh	r3, [fp, #-10]	@ movhi
 640:../AR0330.c   **** 
 641:../AR0330.c   ****     apiRetStatus = CyU3PI2cReceiveBytes(&preamble, buf, count, 0);
 766              		.loc 1 641 0
 767 009c 18305BE5 		ldrb	r3, [fp, #-24]	@ zero_extendqisi2
 768 00a0 14204BE2 		sub	r2, fp, #20
 769 00a4 0200A0E1 		mov	r0, r2
 770 00a8 04109BE5 		ldr	r1, [fp, #4]
 771 00ac 0320A0E1 		mov	r2, r3
 772 00b0 0030A0E3 		mov	r3, #0
 773 00b4 FEFFFFEB 		bl	CyU3PI2cReceiveBytes
 774 00b8 08000BE5 		str	r0, [fp, #-8]
 642:../AR0330.c   ****     SensorI2CAccessDelay(apiRetStatus);
 775              		.loc 1 642 0
 776 00bc 08001BE5 		ldr	r0, [fp, #-8]
 777 00c0 FEFFFFEB 		bl	SensorI2CAccessDelay
 643:../AR0330.c   **** 
 644:../AR0330.c   ****     return apiRetStatus;
 778              		.loc 1 644 0
 779 00c4 08301BE5 		ldr	r3, [fp, #-8]
 780              	.L24:
 645:../AR0330.c   **** }
 781              		.loc 1 645 0
 782 00c8 0300A0E1 		mov	r0, r3
 783 00cc 04D04BE2 		sub	sp, fp, #4
 784              		@ sp needed
 785 00d0 0088BDE8 		ldmfd	sp!, {fp, pc}
 786              	.L26:
 787              		.align	2
 788              	.L25:
 789 00d4 88000000 		.word	.LC3
 790 00d8 AC000000 		.word	.LC4
 791              		.cfi_endproc
 792              	.LFE4:
 794              		.section	.rodata
 795 00cb 00       		.align	2
 796              	.LC5:
 797 00cc 0D53656E 		.ascii	"\015Sensor read retry = %d\012\000"
 797      736F7220 
 797      72656164 
 797      20726574 
 797      7279203D 
 798              		.section	.text.sensor_write,"ax",%progbits
 799              		.align	2
 801              	sensor_write:
 802              	.LFB5:
 646:../AR0330.c   **** 
 647:../AR0330.c   **** 
 648:../AR0330.c   **** static CyU3PReturnStatus_t sensor_write(
 649:../AR0330.c   **** 	unsigned short reg,
 650:../AR0330.c   **** 	unsigned short value
 651:../AR0330.c   **** 	)
 652:../AR0330.c   **** {
 803              		.loc 1 652 0
 804              		.cfi_startproc
 805              		@ args = 0, pretend = 0, frame = 24
 806              		@ frame_needed = 1, uses_anonymous_args = 0
 807 0000 00482DE9 		stmfd	sp!, {fp, lr}
 808              	.LCFI10:
 809              		.cfi_def_cfa_offset 8
 810              		.cfi_offset 11, -8
 811              		.cfi_offset 14, -4
 812 0004 04B08DE2 		add	fp, sp, #4
 813              	.LCFI11:
 814              		.cfi_def_cfa 11, 4
 815 0008 20D04DE2 		sub	sp, sp, #32
 816 000c 0020A0E1 		mov	r2, r0
 817 0010 0130A0E1 		mov	r3, r1
 818 0014 B6214BE1 		strh	r2, [fp, #-22]	@ movhi
 819 0018 B8314BE1 		strh	r3, [fp, #-24]	@ movhi
 653:../AR0330.c   **** //	int ret=0;
 654:../AR0330.c   **** 	int cnt=0;
 820              		.loc 1 654 0
 821 001c 0030A0E3 		mov	r3, #0
 822 0020 08300BE5 		str	r3, [fp, #-8]
 655:../AR0330.c   **** 
 656:../AR0330.c   **** 	uint8_t highAddr;
 657:../AR0330.c   ****     uint8_t lowAddr;
 658:../AR0330.c   ****     uint8_t highData;
 659:../AR0330.c   ****     uint8_t lowData;
 660:../AR0330.c   **** 
 661:../AR0330.c   ****     CyU3PReturnStatus_t retCyU3;
 662:../AR0330.c   **** 
 663:../AR0330.c   **** 	highAddr  = (uint8_t) ((reg & 0xFF00) >> 8);
 823              		.loc 1 663 0
 824 0024 B6315BE1 		ldrh	r3, [fp, #-22]
 825 0028 2334A0E1 		mov	r3, r3, lsr #8
 826 002c 0338A0E1 		mov	r3, r3, asl #16
 827 0030 2338A0E1 		mov	r3, r3, lsr #16
 828 0034 0D304BE5 		strb	r3, [fp, #-13]
 664:../AR0330.c   **** 	lowAddr   = (uint8_t) (reg & 0x00FF);
 829              		.loc 1 664 0
 830 0038 B6315BE1 		ldrh	r3, [fp, #-22]	@ movhi
 831 003c 0E304BE5 		strb	r3, [fp, #-14]
 665:../AR0330.c   **** 	highData  = (uint8_t) ((value & 0xFF00) >> 8);
 832              		.loc 1 665 0
 833 0040 B8315BE1 		ldrh	r3, [fp, #-24]
 834 0044 2334A0E1 		mov	r3, r3, lsr #8
 835 0048 0338A0E1 		mov	r3, r3, asl #16
 836 004c 2338A0E1 		mov	r3, r3, lsr #16
 837 0050 0F304BE5 		strb	r3, [fp, #-15]
 666:../AR0330.c   **** 	lowData   = (uint8_t) (value & 0x00FF);
 838              		.loc 1 666 0
 839 0054 B8315BE1 		ldrh	r3, [fp, #-24]	@ movhi
 840 0058 10304BE5 		strb	r3, [fp, #-16]
 667:../AR0330.c   **** 
 668:../AR0330.c   **** 	retCyU3 = SensorWrite2B(SENSOR_ADDR_WR,highAddr,lowAddr,highData,lowData);
 841              		.loc 1 668 0
 842 005c 0D105BE5 		ldrb	r1, [fp, #-13]	@ zero_extendqisi2
 843 0060 0E205BE5 		ldrb	r2, [fp, #-14]	@ zero_extendqisi2
 844 0064 0F305BE5 		ldrb	r3, [fp, #-15]	@ zero_extendqisi2
 845 0068 10005BE5 		ldrb	r0, [fp, #-16]	@ zero_extendqisi2
 846 006c 00008DE5 		str	r0, [sp]
 847 0070 2000A0E3 		mov	r0, #32
 848 0074 FEFFFFEB 		bl	SensorWrite2B
 849 0078 0C000BE5 		str	r0, [fp, #-12]
 669:../AR0330.c   **** 
 670:../AR0330.c   **** 	while((retCyU3 != CY_U3P_SUCCESS) && (cnt < 2))
 850              		.loc 1 670 0
 851 007c 0A0000EA 		b	.L28
 852              	.L30:
 671:../AR0330.c   **** 	{
 672:../AR0330.c   **** 		retCyU3 = SensorWrite2B(SENSOR_ADDR_WR,highAddr,lowAddr,highData,lowData);
 853              		.loc 1 672 0
 854 0080 0D105BE5 		ldrb	r1, [fp, #-13]	@ zero_extendqisi2
 855 0084 0E205BE5 		ldrb	r2, [fp, #-14]	@ zero_extendqisi2
 856 0088 0F305BE5 		ldrb	r3, [fp, #-15]	@ zero_extendqisi2
 857 008c 10005BE5 		ldrb	r0, [fp, #-16]	@ zero_extendqisi2
 858 0090 00008DE5 		str	r0, [sp]
 859 0094 2000A0E3 		mov	r0, #32
 860 0098 FEFFFFEB 		bl	SensorWrite2B
 861 009c 0C000BE5 		str	r0, [fp, #-12]
 673:../AR0330.c   **** 		cnt++;
 862              		.loc 1 673 0
 863 00a0 08301BE5 		ldr	r3, [fp, #-8]
 864 00a4 013083E2 		add	r3, r3, #1
 865 00a8 08300BE5 		str	r3, [fp, #-8]
 866              	.L28:
 670:../AR0330.c   **** 	{
 867              		.loc 1 670 0 discriminator 1
 868 00ac 0C301BE5 		ldr	r3, [fp, #-12]
 869 00b0 000053E3 		cmp	r3, #0
 870 00b4 0200000A 		beq	.L29
 670:../AR0330.c   **** 	{
 871              		.loc 1 670 0 is_stmt 0 discriminator 2
 872 00b8 08301BE5 		ldr	r3, [fp, #-8]
 873 00bc 010053E3 		cmp	r3, #1
 874 00c0 EEFFFFDA 		ble	.L30
 875              	.L29:
 674:../AR0330.c   **** 	}
 675:../AR0330.c   **** 	if(cnt>0)
 876              		.loc 1 675 0 is_stmt 1
 877 00c4 08301BE5 		ldr	r3, [fp, #-8]
 878 00c8 000053E3 		cmp	r3, #0
 879 00cc 030000DA 		ble	.L31
 676:../AR0330.c   **** 	{
 677:../AR0330.c   **** 		CyU3PDebugPrint(4, "\rSensor read retry = %d\n",cnt);
 880              		.loc 1 677 0
 881 00d0 0400A0E3 		mov	r0, #4
 882 00d4 14109FE5 		ldr	r1, .L33
 883 00d8 08201BE5 		ldr	r2, [fp, #-8]
 884 00dc FEFFFFEB 		bl	CyU3PDebugPrint
 885              	.L31:
 678:../AR0330.c   **** 	}
 679:../AR0330.c   **** 	return retCyU3;
 886              		.loc 1 679 0
 887 00e0 0C301BE5 		ldr	r3, [fp, #-12]
 680:../AR0330.c   **** }
 888              		.loc 1 680 0
 889 00e4 0300A0E1 		mov	r0, r3
 890 00e8 04D04BE2 		sub	sp, fp, #4
 891              		@ sp needed
 892 00ec 0088BDE8 		ldmfd	sp!, {fp, pc}
 893              	.L34:
 894              		.align	2
 895              	.L33:
 896 00f0 CC000000 		.word	.LC5
 897              		.cfi_endproc
 898              	.LFE5:
 900              		.section	.rodata
 901 00e5 000000   		.align	2
 902              	.LC6:
 903 00e8 0D577269 		.ascii	"\015Write 0x%x=0x%x \015\012\000"
 903      74652030 
 903      7825783D 
 903      30782578 
 903      200D0A00 
 904              		.section	.text.sensor_write_array,"ax",%progbits
 905              		.align	2
 907              	sensor_write_array:
 908              	.LFB6:
 681:../AR0330.c   **** 
 682:../AR0330.c   **** static CyU3PReturnStatus_t sensor_write_array(
 683:../AR0330.c   **** 	struct regval_list *regs,
 684:../AR0330.c   **** 	int array_size
 685:../AR0330.c   **** 	)
 686:../AR0330.c   **** {
 909              		.loc 1 686 0
 910              		.cfi_startproc
 911              		@ args = 0, pretend = 0, frame = 16
 912              		@ frame_needed = 1, uses_anonymous_args = 0
 913 0000 00482DE9 		stmfd	sp!, {fp, lr}
 914              	.LCFI12:
 915              		.cfi_def_cfa_offset 8
 916              		.cfi_offset 11, -8
 917              		.cfi_offset 14, -4
 918 0004 04B08DE2 		add	fp, sp, #4
 919              	.LCFI13:
 920              		.cfi_def_cfa 11, 4
 921 0008 10D04DE2 		sub	sp, sp, #16
 922 000c 10000BE5 		str	r0, [fp, #-16]
 923 0010 14100BE5 		str	r1, [fp, #-20]
 687:../AR0330.c   **** 	int i = 0;
 924              		.loc 1 687 0
 925 0014 0030A0E3 		mov	r3, #0
 926 0018 08300BE5 		str	r3, [fp, #-8]
 688:../AR0330.c   **** 	CyU3PReturnStatus_t retCyU3;
 689:../AR0330.c   **** 
 690:../AR0330.c   **** 	if(!regs)
 927              		.loc 1 690 0
 928 001c 10301BE5 		ldr	r3, [fp, #-16]
 929 0020 000053E3 		cmp	r3, #0
 930 0024 0100001A 		bne	.L36
 691:../AR0330.c   **** 		return -EINVAL;
 931              		.loc 1 691 0
 932 0028 1530E0E3 		mvn	r3, #21
 933 002c 250000EA 		b	.L37
 934              	.L36:
 692:../AR0330.c   **** 
 693:../AR0330.c   **** 	while(i < array_size)
 935              		.loc 1 693 0
 936 0030 1F0000EA 		b	.L38
 937              	.L41:
 694:../AR0330.c   **** 	{
 695:../AR0330.c   **** 		if(regs->addr == REG_DLY)
 938              		.loc 1 695 0
 939 0034 10301BE5 		ldr	r3, [fp, #-16]
 940 0038 B020D3E1 		ldrh	r2, [r3]
 941 003c 90309FE5 		ldr	r3, .L42
 942 0040 030052E1 		cmp	r2, r3
 943 0044 0400001A 		bne	.L39
 696:../AR0330.c   **** 		{
 697:../AR0330.c   **** 			CyU3PThreadSleep(regs->data);          // delay
 944              		.loc 1 697 0
 945 0048 10301BE5 		ldr	r3, [fp, #-16]
 946 004c B230D3E1 		ldrh	r3, [r3, #2]
 947 0050 0300A0E1 		mov	r0, r3
 948 0054 FEFFFFEB 		bl	_tx_thread_sleep
 949 0058 0F0000EA 		b	.L40
 950              	.L39:
 698:../AR0330.c   **** 		}
 699:../AR0330.c   **** 		else
 700:../AR0330.c   **** 		{
 701:../AR0330.c   ****     		CyU3PDebugPrint (4, "\rWrite 0x%x=0x%x \r\n",regs->addr,regs->data);
 951              		.loc 1 701 0
 952 005c 10301BE5 		ldr	r3, [fp, #-16]
 953 0060 B030D3E1 		ldrh	r3, [r3]
 954 0064 0320A0E1 		mov	r2, r3
 955 0068 10301BE5 		ldr	r3, [fp, #-16]
 956 006c B230D3E1 		ldrh	r3, [r3, #2]
 957 0070 0400A0E3 		mov	r0, #4
 958 0074 5C109FE5 		ldr	r1, .L42+4
 959 0078 FEFFFFEB 		bl	CyU3PDebugPrint
 702:../AR0330.c   ****     		retCyU3 = sensor_write(regs->addr, regs->data);
 960              		.loc 1 702 0
 961 007c 10301BE5 		ldr	r3, [fp, #-16]
 962 0080 B020D3E1 		ldrh	r2, [r3]
 963 0084 10301BE5 		ldr	r3, [fp, #-16]
 964 0088 B230D3E1 		ldrh	r3, [r3, #2]
 965 008c 0200A0E1 		mov	r0, r2
 966 0090 0310A0E1 		mov	r1, r3
 967 0094 FEFFFFEB 		bl	sensor_write
 968 0098 0C000BE5 		str	r0, [fp, #-12]
 969              	.L40:
 703:../AR0330.c   ****     	}
 704:../AR0330.c   **** 		i++;
 970              		.loc 1 704 0
 971 009c 08301BE5 		ldr	r3, [fp, #-8]
 972 00a0 013083E2 		add	r3, r3, #1
 973 00a4 08300BE5 		str	r3, [fp, #-8]
 705:../AR0330.c   ****     	regs++;
 974              		.loc 1 705 0
 975 00a8 10301BE5 		ldr	r3, [fp, #-16]
 976 00ac 043083E2 		add	r3, r3, #4
 977 00b0 10300BE5 		str	r3, [fp, #-16]
 978              	.L38:
 693:../AR0330.c   **** 	{
 979              		.loc 1 693 0 discriminator 1
 980 00b4 08201BE5 		ldr	r2, [fp, #-8]
 981 00b8 14301BE5 		ldr	r3, [fp, #-20]
 982 00bc 030052E1 		cmp	r2, r3
 983 00c0 DBFFFFBA 		blt	.L41
 706:../AR0330.c   **** 	}
 707:../AR0330.c   ****   return retCyU3;
 984              		.loc 1 707 0
 985 00c4 0C301BE5 		ldr	r3, [fp, #-12]
 986              	.L37:
 708:../AR0330.c   **** }
 987              		.loc 1 708 0
 988 00c8 0300A0E1 		mov	r0, r3
 989 00cc 04D04BE2 		sub	sp, fp, #4
 990              		@ sp needed
 991 00d0 0088BDE8 		ldmfd	sp!, {fp, pc}
 992              	.L43:
 993              		.align	2
 994              	.L42:
 995 00d4 FFFF0000 		.word	65535
 996 00d8 E8000000 		.word	.LC6
 997              		.cfi_endproc
 998              	.LFE6:
 1000              		.section	.text.sensor_read,"ax",%progbits
 1001              		.align	2
 1003              	sensor_read:
 1004              	.LFB7:
 709:../AR0330.c   **** 
 710:../AR0330.c   **** 
 711:../AR0330.c   **** 
 712:../AR0330.c   **** static CyU3PReturnStatus_t sensor_read(
 713:../AR0330.c   **** 	unsigned short reg,
 714:../AR0330.c   **** 	unsigned short *value
 715:../AR0330.c   **** 	)
 716:../AR0330.c   **** {
 1005              		.loc 1 716 0
 1006              		.cfi_startproc
 1007              		@ args = 0, pretend = 0, frame = 24
 1008              		@ frame_needed = 1, uses_anonymous_args = 0
 1009 0000 00482DE9 		stmfd	sp!, {fp, lr}
 1010              	.LCFI14:
 1011              		.cfi_def_cfa_offset 8
 1012              		.cfi_offset 11, -8
 1013              		.cfi_offset 14, -4
 1014 0004 04B08DE2 		add	fp, sp, #4
 1015              	.LCFI15:
 1016              		.cfi_def_cfa 11, 4
 1017 0008 18D04DE2 		sub	sp, sp, #24
 1018 000c 0030A0E1 		mov	r3, r0
 1019 0010 1C100BE5 		str	r1, [fp, #-28]
 1020 0014 B6314BE1 		strh	r3, [fp, #-22]	@ movhi
 717:../AR0330.c   **** 	int cnt=0;
 1021              		.loc 1 717 0
 1022 0018 0030A0E3 		mov	r3, #0
 1023 001c 08300BE5 		str	r3, [fp, #-8]
 718:../AR0330.c   **** 
 719:../AR0330.c   **** 	uint8_t highAddr;
 720:../AR0330.c   ****     uint8_t lowAddr;
 721:../AR0330.c   ****     uint8_t buf[2];
 722:../AR0330.c   **** 
 723:../AR0330.c   **** 
 724:../AR0330.c   ****     CyU3PReturnStatus_t retCyU3;
 725:../AR0330.c   **** 
 726:../AR0330.c   **** 	highAddr  = (uint8_t) ((reg & 0xFF00) >> 8);
 1024              		.loc 1 726 0
 1025 0020 B6315BE1 		ldrh	r3, [fp, #-22]
 1026 0024 2334A0E1 		mov	r3, r3, lsr #8
 1027 0028 0338A0E1 		mov	r3, r3, asl #16
 1028 002c 2338A0E1 		mov	r3, r3, lsr #16
 1029 0030 0D304BE5 		strb	r3, [fp, #-13]
 727:../AR0330.c   **** 	lowAddr   = (uint8_t) (reg & 0x00FF);
 1030              		.loc 1 727 0
 1031 0034 B6315BE1 		ldrh	r3, [fp, #-22]	@ movhi
 1032 0038 0E304BE5 		strb	r3, [fp, #-14]
 728:../AR0330.c   **** 
 729:../AR0330.c   **** 
 730:../AR0330.c   **** 	retCyU3 = SensorRead2B(SENSOR_ADDR_RD, highAddr, lowAddr, buf);
 1033              		.loc 1 730 0
 1034 003c 0D105BE5 		ldrb	r1, [fp, #-13]	@ zero_extendqisi2
 1035 0040 0E205BE5 		ldrb	r2, [fp, #-14]	@ zero_extendqisi2
 1036 0044 10304BE2 		sub	r3, fp, #16
 1037 0048 2100A0E3 		mov	r0, #33
 1038 004c FEFFFFEB 		bl	SensorRead2B
 1039 0050 0C000BE5 		str	r0, [fp, #-12]
 731:../AR0330.c   **** 	while((retCyU3 != CY_U3P_SUCCESS) && (cnt<3))
 1040              		.loc 1 731 0
 1041 0054 080000EA 		b	.L45
 1042              	.L47:
 732:../AR0330.c   **** 	{
 733:../AR0330.c   **** 		retCyU3 = SensorRead2B(SENSOR_ADDR_RD, highAddr, lowAddr, buf);
 1043              		.loc 1 733 0
 1044 0058 0D105BE5 		ldrb	r1, [fp, #-13]	@ zero_extendqisi2
 1045 005c 0E205BE5 		ldrb	r2, [fp, #-14]	@ zero_extendqisi2
 1046 0060 10304BE2 		sub	r3, fp, #16
 1047 0064 2100A0E3 		mov	r0, #33
 1048 0068 FEFFFFEB 		bl	SensorRead2B
 1049 006c 0C000BE5 		str	r0, [fp, #-12]
 734:../AR0330.c   **** 		cnt++;
 1050              		.loc 1 734 0
 1051 0070 08301BE5 		ldr	r3, [fp, #-8]
 1052 0074 013083E2 		add	r3, r3, #1
 1053 0078 08300BE5 		str	r3, [fp, #-8]
 1054              	.L45:
 731:../AR0330.c   **** 	while((retCyU3 != CY_U3P_SUCCESS) && (cnt<3))
 1055              		.loc 1 731 0 discriminator 1
 1056 007c 0C301BE5 		ldr	r3, [fp, #-12]
 1057 0080 000053E3 		cmp	r3, #0
 1058 0084 0200000A 		beq	.L46
 731:../AR0330.c   **** 	while((retCyU3 != CY_U3P_SUCCESS) && (cnt<3))
 1059              		.loc 1 731 0 is_stmt 0 discriminator 2
 1060 0088 08301BE5 		ldr	r3, [fp, #-8]
 1061 008c 020053E3 		cmp	r3, #2
 1062 0090 F0FFFFDA 		ble	.L47
 1063              	.L46:
 735:../AR0330.c   **** 	}
 736:../AR0330.c   **** 
 737:../AR0330.c   **** 	*value = (unsigned short) ((buf[0] << 8) + buf[1]);
 1064              		.loc 1 737 0 is_stmt 1
 1065 0094 10305BE5 		ldrb	r3, [fp, #-16]	@ zero_extendqisi2
 1066 0098 0334A0E1 		mov	r3, r3, asl #8
 1067 009c 0338A0E1 		mov	r3, r3, asl #16
 1068 00a0 2328A0E1 		mov	r2, r3, lsr #16
 1069 00a4 0F305BE5 		ldrb	r3, [fp, #-15]	@ zero_extendqisi2
 1070 00a8 033082E0 		add	r3, r2, r3
 1071 00ac 0338A0E1 		mov	r3, r3, asl #16
 1072 00b0 2328A0E1 		mov	r2, r3, lsr #16
 1073 00b4 1C301BE5 		ldr	r3, [fp, #-28]
 1074 00b8 B020C3E1 		strh	r2, [r3]	@ movhi
 738:../AR0330.c   **** 
 739:../AR0330.c   **** 	if(cnt>0)
 1075              		.loc 1 739 0
 1076 00bc 08301BE5 		ldr	r3, [fp, #-8]
 1077 00c0 000053E3 		cmp	r3, #0
 1078 00c4 030000DA 		ble	.L48
 740:../AR0330.c   **** 	{
 741:../AR0330.c   **** 		CyU3PDebugPrint(4, "\rSensor read retry = %d\n",cnt);
 1079              		.loc 1 741 0
 1080 00c8 0400A0E3 		mov	r0, #4
 1081 00cc 14109FE5 		ldr	r1, .L50
 1082 00d0 08201BE5 		ldr	r2, [fp, #-8]
 1083 00d4 FEFFFFEB 		bl	CyU3PDebugPrint
 1084              	.L48:
 742:../AR0330.c   **** 	}
 743:../AR0330.c   **** 	return retCyU3;
 1085              		.loc 1 743 0
 1086 00d8 0C301BE5 		ldr	r3, [fp, #-12]
 744:../AR0330.c   **** }
 1087              		.loc 1 744 0
 1088 00dc 0300A0E1 		mov	r0, r3
 1089 00e0 04D04BE2 		sub	sp, fp, #4
 1090              		@ sp needed
 1091 00e4 0088BDE8 		ldmfd	sp!, {fp, pc}
 1092              	.L51:
 1093              		.align	2
 1094              	.L50:
 1095 00e8 CC000000 		.word	.LC5
 1096              		.cfi_endproc
 1097              	.LFE7:
 1099              		.section	.rodata
 1100              		.align	2
 1101              	.LC7:
 1102 00fc 0D526561 		.ascii	"\015Read 0x%x=0x%2x \015\012\000"
 1102      64203078 
 1102      25783D30 
 1102      78253278 
 1102      200D0A00 
 1103              		.section	.text.sensor_read_array,"ax",%progbits
 1104              		.align	2
 1106              	sensor_read_array:
 1107              	.LFB8:
 745:../AR0330.c   **** 
 746:../AR0330.c   **** static CyU3PReturnStatus_t sensor_read_array(
 747:../AR0330.c   **** 	struct regval_list *regs,
 748:../AR0330.c   **** 	int array_size
 749:../AR0330.c   **** 	)
 750:../AR0330.c   **** {
 1108              		.loc 1 750 0
 1109              		.cfi_startproc
 1110              		@ args = 0, pretend = 0, frame = 24
 1111              		@ frame_needed = 1, uses_anonymous_args = 0
 1112 0000 00482DE9 		stmfd	sp!, {fp, lr}
 1113              	.LCFI16:
 1114              		.cfi_def_cfa_offset 8
 1115              		.cfi_offset 11, -8
 1116              		.cfi_offset 14, -4
 1117 0004 04B08DE2 		add	fp, sp, #4
 1118              	.LCFI17:
 1119              		.cfi_def_cfa 11, 4
 1120 0008 18D04DE2 		sub	sp, sp, #24
 1121 000c 18000BE5 		str	r0, [fp, #-24]
 1122 0010 1C100BE5 		str	r1, [fp, #-28]
 751:../AR0330.c   **** 	unsigned short temp=0;
 1123              		.loc 1 751 0
 1124 0014 0030A0E3 		mov	r3, #0
 1125 0018 BE304BE1 		strh	r3, [fp, #-14]	@ movhi
 752:../AR0330.c   **** 	int i=0;
 1126              		.loc 1 752 0
 1127 001c 0030A0E3 		mov	r3, #0
 1128 0020 08300BE5 		str	r3, [fp, #-8]
 753:../AR0330.c   **** 	CyU3PReturnStatus_t retCyU3;
 754:../AR0330.c   **** 
 755:../AR0330.c   **** 	for(i=0;i<array_size;i++,regs++)
 1129              		.loc 1 755 0
 1130 0024 0030A0E3 		mov	r3, #0
 1131 0028 08300BE5 		str	r3, [fp, #-8]
 1132 002c 1C0000EA 		b	.L53
 1133              	.L55:
 756:../AR0330.c   **** 	{
 757:../AR0330.c   **** 		if(regs->addr == REG_DLY)
 1134              		.loc 1 757 0
 1135 0030 18301BE5 		ldr	r3, [fp, #-24]
 1136 0034 B020D3E1 		ldrh	r2, [r3]
 1137 0038 84309FE5 		ldr	r3, .L57
 1138 003c 030052E1 		cmp	r2, r3
 1139 0040 0300001A 		bne	.L54
 758:../AR0330.c   **** 		{
 759:../AR0330.c   **** 			CyU3PThreadSleep(regs->data);
 1140              		.loc 1 759 0
 1141 0044 18301BE5 		ldr	r3, [fp, #-24]
 1142 0048 B230D3E1 		ldrh	r3, [r3, #2]
 1143 004c 0300A0E1 		mov	r0, r3
 1144 0050 FEFFFFEB 		bl	_tx_thread_sleep
 1145              	.L54:
 760:../AR0330.c   **** 		}
 761:../AR0330.c   **** 		retCyU3 = sensor_read(regs->addr,&temp);
 1146              		.loc 1 761 0
 1147 0054 18301BE5 		ldr	r3, [fp, #-24]
 1148 0058 B020D3E1 		ldrh	r2, [r3]
 1149 005c 0E304BE2 		sub	r3, fp, #14
 1150 0060 0200A0E1 		mov	r0, r2
 1151 0064 0310A0E1 		mov	r1, r3
 1152 0068 FEFFFFEB 		bl	sensor_read
 1153 006c 0C000BE5 		str	r0, [fp, #-12]
 762:../AR0330.c   **** 		CyU3PDebugPrint (4, "\rRead 0x%x=0x%2x \r\n",regs->addr, temp);
 1154              		.loc 1 762 0
 1155 0070 18301BE5 		ldr	r3, [fp, #-24]
 1156 0074 B030D3E1 		ldrh	r3, [r3]
 1157 0078 0320A0E1 		mov	r2, r3
 1158 007c BE305BE1 		ldrh	r3, [fp, #-14]
 1159 0080 0400A0E3 		mov	r0, #4
 1160 0084 3C109FE5 		ldr	r1, .L57+4
 1161 0088 FEFFFFEB 		bl	CyU3PDebugPrint
 755:../AR0330.c   **** 	{
 1162              		.loc 1 755 0
 1163 008c 08301BE5 		ldr	r3, [fp, #-8]
 1164 0090 013083E2 		add	r3, r3, #1
 1165 0094 08300BE5 		str	r3, [fp, #-8]
 1166 0098 18301BE5 		ldr	r3, [fp, #-24]
 1167 009c 043083E2 		add	r3, r3, #4
 1168 00a0 18300BE5 		str	r3, [fp, #-24]
 1169              	.L53:
 755:../AR0330.c   **** 	{
 1170              		.loc 1 755 0 is_stmt 0 discriminator 1
 1171 00a4 08201BE5 		ldr	r2, [fp, #-8]
 1172 00a8 1C301BE5 		ldr	r3, [fp, #-28]
 1173 00ac 030052E1 		cmp	r2, r3
 1174 00b0 DEFFFFBA 		blt	.L55
 763:../AR0330.c   ****   	}
 764:../AR0330.c   ****   return retCyU3;
 1175              		.loc 1 764 0 is_stmt 1
 1176 00b4 0C301BE5 		ldr	r3, [fp, #-12]
 765:../AR0330.c   **** }
 1177              		.loc 1 765 0
 1178 00b8 0300A0E1 		mov	r0, r3
 1179 00bc 04D04BE2 		sub	sp, fp, #4
 1180              		@ sp needed
 1181 00c0 0088BDE8 		ldmfd	sp!, {fp, pc}
 1182              	.L58:
 1183              		.align	2
 1184              	.L57:
 1185 00c4 FFFF0000 		.word	65535
 1186 00c8 FC000000 		.word	.LC7
 1187              		.cfi_endproc
 1188              	.LFE8:
 1190              		.section	.rodata
 1191              		.align	2
 1192              	.LC8:
 1193 0110 4750494F 		.ascii	"GPIO Set Value Error, Error Code = %d\012\000"
 1193      20536574 
 1193      2056616C 
 1193      75652045 
 1193      72726F72 
 1194              		.section	.text.SensorReset,"ax",%progbits
 1195              		.align	2
 1196              		.global	SensorReset
 1198              	SensorReset:
 1199              	.LFB9:
 766:../AR0330.c   **** 
 767:../AR0330.c   **** 
 768:../AR0330.c   **** //
 769:../AR0330.c   **** // FUNCTION NAME.
 770:../AR0330.c   **** //     SensorReset
 771:../AR0330.c   **** //
 772:../AR0330.c   **** // FUNCTIONAL DESCRIPTION.
 773:../AR0330.c   **** //     Reset the image sensor using GPIO.
 774:../AR0330.c   **** //
 775:../AR0330.c   **** // ENTRY PARAMETERS.
 776:../AR0330.c   **** //      void
 777:../AR0330.c   **** //
 778:../AR0330.c   **** // EXIT PARAMETERS.
 779:../AR0330.c   **** //      Function Return
 780:../AR0330.c   **** //
 781:../AR0330.c   **** 
 782:../AR0330.c   **** void SensorReset(void)
 783:../AR0330.c   **** {
 1200              		.loc 1 783 0
 1201              		.cfi_startproc
 1202              		@ args = 0, pretend = 0, frame = 8
 1203              		@ frame_needed = 1, uses_anonymous_args = 0
 1204 0000 00482DE9 		stmfd	sp!, {fp, lr}
 1205              	.LCFI18:
 1206              		.cfi_def_cfa_offset 8
 1207              		.cfi_offset 11, -8
 1208              		.cfi_offset 14, -4
 1209 0004 04B08DE2 		add	fp, sp, #4
 1210              	.LCFI19:
 1211              		.cfi_def_cfa 11, 4
 1212 0008 08D04DE2 		sub	sp, sp, #8
 784:../AR0330.c   ****     CyU3PReturnStatus_t apiRetStatus;
 785:../AR0330.c   **** 
 786:../AR0330.c   ****     //
 787:../AR0330.c   ****     //  Drive the GPIO low to reset the sensor.
 788:../AR0330.c   ****     //
 789:../AR0330.c   ****     apiRetStatus = CyU3PGpioSetValue(SENSOR_RESET_GPIO, CyFalse);
 1213              		.loc 1 789 0
 1214 000c 2500A0E3 		mov	r0, #37
 1215 0010 0010A0E3 		mov	r1, #0
 1216 0014 FEFFFFEB 		bl	CyU3PGpioSetValue
 1217 0018 08000BE5 		str	r0, [fp, #-8]
 790:../AR0330.c   ****     if (apiRetStatus != CY_U3P_SUCCESS)
 1218              		.loc 1 790 0
 1219 001c 08301BE5 		ldr	r3, [fp, #-8]
 1220 0020 000053E3 		cmp	r3, #0
 1221 0024 0400000A 		beq	.L60
 791:../AR0330.c   ****     {
 792:../AR0330.c   ****         CyU3PDebugPrint(4, "GPIO Set Value Error, Error Code = %d\n", apiRetStatus);
 1222              		.loc 1 792 0
 1223 0028 0400A0E3 		mov	r0, #4
 1224 002c 54109FE5 		ldr	r1, .L63
 1225 0030 08201BE5 		ldr	r2, [fp, #-8]
 1226 0034 FEFFFFEB 		bl	CyU3PDebugPrint
 793:../AR0330.c   ****         return;
 1227              		.loc 1 793 0
 1228 0038 100000EA 		b	.L59
 1229              	.L60:
 794:../AR0330.c   ****     }
 795:../AR0330.c   **** 
 796:../AR0330.c   ****     //
 797:../AR0330.c   ****     // Wait for some time to allow proper reset.
 798:../AR0330.c   ****     //
 799:../AR0330.c   ****     CyU3PThreadSleep(10);
 1230              		.loc 1 799 0
 1231 003c 0A00A0E3 		mov	r0, #10
 1232 0040 FEFFFFEB 		bl	_tx_thread_sleep
 800:../AR0330.c   **** 
 801:../AR0330.c   ****     //
 802:../AR0330.c   ****     // Drive the GPIO high to bring the sensor out of reset.
 803:../AR0330.c   ****     //
 804:../AR0330.c   ****     apiRetStatus = CyU3PGpioSetValue(SENSOR_RESET_GPIO, CyTrue);
 1233              		.loc 1 804 0
 1234 0044 2500A0E3 		mov	r0, #37
 1235 0048 0110A0E3 		mov	r1, #1
 1236 004c FEFFFFEB 		bl	CyU3PGpioSetValue
 1237 0050 08000BE5 		str	r0, [fp, #-8]
 805:../AR0330.c   ****     if (apiRetStatus != CY_U3P_SUCCESS)
 1238              		.loc 1 805 0
 1239 0054 08301BE5 		ldr	r3, [fp, #-8]
 1240 0058 000053E3 		cmp	r3, #0
 1241 005c 0400000A 		beq	.L62
 806:../AR0330.c   ****     {
 807:../AR0330.c   ****         CyU3PDebugPrint(4, "GPIO Set Value Error, Error Code = %d\n", apiRetStatus);
 1242              		.loc 1 807 0
 1243 0060 0400A0E3 		mov	r0, #4
 1244 0064 1C109FE5 		ldr	r1, .L63
 1245 0068 08201BE5 		ldr	r2, [fp, #-8]
 1246 006c FEFFFFEB 		bl	CyU3PDebugPrint
 808:../AR0330.c   ****         return;
 1247              		.loc 1 808 0
 1248 0070 020000EA 		b	.L59
 1249              	.L62:
 809:../AR0330.c   ****     }
 810:../AR0330.c   **** 
 811:../AR0330.c   ****     //
 812:../AR0330.c   ****     // Delay the allow the sensor to power up.
 813:../AR0330.c   ****     //
 814:../AR0330.c   ****     CyU3PThreadSleep(10);
 1250              		.loc 1 814 0
 1251 0074 0A00A0E3 		mov	r0, #10
 1252 0078 FEFFFFEB 		bl	_tx_thread_sleep
 815:../AR0330.c   ****     return;
 1253              		.loc 1 815 0
 1254 007c 0000A0E1 		mov	r0, r0	@ nop
 1255              	.L59:
 816:../AR0330.c   **** }
 1256              		.loc 1 816 0
 1257 0080 04D04BE2 		sub	sp, fp, #4
 1258              		@ sp needed
 1259 0084 0088BDE8 		ldmfd	sp!, {fp, pc}
 1260              	.L64:
 1261              		.align	2
 1262              	.L63:
 1263 0088 10010000 		.word	.LC8
 1264              		.cfi_endproc
 1265              	.LFE9:
 1267              		.section	.rodata
 1268 0137 00       		.align	2
 1269              	.LC9:
 1270 0138 0D53656E 		.ascii	"\015SensorI2cBusTest: SensorRead2B %x %x \015\012\000"
 1270      736F7249 
 1270      32634275 
 1270      73546573 
 1270      743A2053 
 1271 0161 000000   		.align	2
 1272              	.LC10:
 1273 0164 0D725365 		.ascii	"\015rSensorI2cBusTest: SensorRead2B %x %x \015\012\000"
 1273      6E736F72 
 1273      49326342 
 1273      75735465 
 1273      73743A20 
 1274 018e 0000     		.align	2
 1275              	.LC11:
 1276 0190 0D53656E 		.ascii	"\015SensorI2cBusTest: SensorRead2B fail \015\012\000"
 1276      736F7249 
 1276      32634275 
 1276      73546573 
 1276      743A2053 
 1277              		.align	2
 1278              	.LC12:
 1279 01b8 0D53656E 		.ascii	"\015SensorI2cBusTest: SensorWrite2B fail \015\012\000"
 1279      736F7249 
 1279      32634275 
 1279      73546573 
 1279      743A2053 
 1280              		.section	.text.SensorI2cBusTest,"ax",%progbits
 1281              		.align	2
 1282              		.global	SensorI2cBusTest
 1284              	SensorI2cBusTest:
 1285              	.LFB10:
 817:../AR0330.c   **** 
 818:../AR0330.c   **** //
 819:../AR0330.c   **** //   Verify that the sensor can be accessed over the I2C bus from FX3/CX3
 820:../AR0330.c   **** //
 821:../AR0330.c   **** uint8_t SensorI2cBusTest(void)
 822:../AR0330.c   **** {
 1286              		.loc 1 822 0
 1287              		.cfi_startproc
 1288              		@ args = 0, pretend = 0, frame = 8
 1289              		@ frame_needed = 1, uses_anonymous_args = 0
 1290 0000 00482DE9 		stmfd	sp!, {fp, lr}
 1291              	.LCFI20:
 1292              		.cfi_def_cfa_offset 8
 1293              		.cfi_offset 11, -8
 1294              		.cfi_offset 14, -4
 1295 0004 04B08DE2 		add	fp, sp, #4
 1296              	.LCFI21:
 1297              		.cfi_def_cfa 11, 4
 1298 0008 10D04DE2 		sub	sp, sp, #16
 823:../AR0330.c   ****     //
 824:../AR0330.c   ****     // The sensor ID register can be read here to verify sensor connectivity.
 825:../AR0330.c   ****     //
 826:../AR0330.c   ****     uint8_t buf[2];
 827:../AR0330.c   **** 
 828:../AR0330.c   **** 
 829:../AR0330.c   **** //    CyU3PDebugPrint (4, "\rSensorI2cBusTest ================ \r\n");
 830:../AR0330.c   **** 
 831:../AR0330.c   **** 
 832:../AR0330.c   **** #if 0
 833:../AR0330.c   ****     //
 834:../AR0330.c   ****     // Reading sensor ID
 835:../AR0330.c   ****     //
 836:../AR0330.c   ****     if (SensorRead2B(SENSOR_ADDR_RD, 0x00, 0x00, buf) == CY_U3P_SUCCESS)
 837:../AR0330.c   ****     {
 838:../AR0330.c   ****         if ((buf[0] == 0x01) && (buf[1] == 0x02))
 839:../AR0330.c   ****         {
 840:../AR0330.c   ****             return CY_U3P_SUCCESS;
 841:../AR0330.c   ****         }
 842:../AR0330.c   ****     }
 843:../AR0330.c   **** #endif
 844:../AR0330.c   **** 
 845:../AR0330.c   ****     //
 846:../AR0330.c   ****     // Read chip version register
 847:../AR0330.c   ****     //
 848:../AR0330.c   ****     if (SensorWrite2B(SENSOR_ADDR_WR, 0x30, 0x00, 0x12, 0x13) == CY_U3P_SUCCESS)
 1299              		.loc 1 848 0
 1300 000c 1330A0E3 		mov	r3, #19
 1301 0010 00308DE5 		str	r3, [sp]
 1302 0014 2000A0E3 		mov	r0, #32
 1303 0018 3010A0E3 		mov	r1, #48
 1304 001c 0020A0E3 		mov	r2, #0
 1305 0020 1230A0E3 		mov	r3, #18
 1306 0024 FEFFFFEB 		bl	SensorWrite2B
 1307 0028 0030A0E1 		mov	r3, r0
 1308 002c 000053E3 		cmp	r3, #0
 1309 0030 1A00001A 		bne	.L66
 849:../AR0330.c   ****     {
 850:../AR0330.c   ****         CyU3PDebugPrint (4, "\rSensorI2cBusTest: SensorRead2B %x %x \r\n",buf[0],buf[1]);
 1310              		.loc 1 850 0
 1311 0034 08305BE5 		ldrb	r3, [fp, #-8]	@ zero_extendqisi2
 1312 0038 0320A0E1 		mov	r2, r3
 1313 003c 07305BE5 		ldrb	r3, [fp, #-7]	@ zero_extendqisi2
 1314 0040 0400A0E3 		mov	r0, #4
 1315 0044 70109FE5 		ldr	r1, .L70
 1316 0048 FEFFFFEB 		bl	CyU3PDebugPrint
 851:../AR0330.c   ****         if (SensorRead2B(SENSOR_ADDR_RD, 0x30, 0x00, buf) == CY_U3P_SUCCESS)
 1317              		.loc 1 851 0
 1318 004c 08304BE2 		sub	r3, fp, #8
 1319 0050 2100A0E3 		mov	r0, #33
 1320 0054 3010A0E3 		mov	r1, #48
 1321 0058 0020A0E3 		mov	r2, #0
 1322 005c FEFFFFEB 		bl	SensorRead2B
 1323 0060 0030A0E1 		mov	r3, r0
 1324 0064 000053E3 		cmp	r3, #0
 1325 0068 0700001A 		bne	.L67
 852:../AR0330.c   ****         {
 853:../AR0330.c   ****     	    CyU3PDebugPrint (4, "\rrSensorI2cBusTest: SensorRead2B %x %x \r\n",buf[0],buf[1]);
 1326              		.loc 1 853 0
 1327 006c 08305BE5 		ldrb	r3, [fp, #-8]	@ zero_extendqisi2
 1328 0070 0320A0E1 		mov	r2, r3
 1329 0074 07305BE5 		ldrb	r3, [fp, #-7]	@ zero_extendqisi2
 1330 0078 0400A0E3 		mov	r0, #4
 1331 007c 3C109FE5 		ldr	r1, .L70+4
 1332 0080 FEFFFFEB 		bl	CyU3PDebugPrint
 854:../AR0330.c   ****     	    return CY_U3P_SUCCESS;
 1333              		.loc 1 854 0
 1334 0084 0030A0E3 		mov	r3, #0
 1335 0088 080000EA 		b	.L69
 1336              	.L67:
 855:../AR0330.c   ****     	}
 856:../AR0330.c   ****     	else
 857:../AR0330.c   ****     	{
 858:../AR0330.c   ****     	    CyU3PDebugPrint (4, "\rSensorI2cBusTest: SensorRead2B fail \r\n");
 1337              		.loc 1 858 0
 1338 008c 0400A0E3 		mov	r0, #4
 1339 0090 2C109FE5 		ldr	r1, .L70+8
 1340 0094 FEFFFFEB 		bl	CyU3PDebugPrint
 859:../AR0330.c   ****     	}
 860:../AR0330.c   ****         return CY_U3P_SUCCESS;
 1341              		.loc 1 860 0
 1342 0098 0030A0E3 		mov	r3, #0
 1343 009c 030000EA 		b	.L69
 1344              	.L66:
 861:../AR0330.c   ****     }
 862:../AR0330.c   ****     else
 863:../AR0330.c   ****     {
 864:../AR0330.c   ****         CyU3PDebugPrint (4, "\rSensorI2cBusTest: SensorWrite2B fail \r\n");
 1345              		.loc 1 864 0
 1346 00a0 0400A0E3 		mov	r0, #4
 1347 00a4 1C109FE5 		ldr	r1, .L70+12
 1348 00a8 FEFFFFEB 		bl	CyU3PDebugPrint
 865:../AR0330.c   ****     }
 866:../AR0330.c   **** 
 867:../AR0330.c   **** //    if (SensorRead2B(SENSOR_ADDR_RD, 0x30, 0x00, buf) == CY_U3P_SUCCESS)
 868:../AR0330.c   **** //    {
 869:../AR0330.c   **** //        CyU3PDebugPrint (4, "\rrSensorI2cBusTest: SensorRead2B %x %x \r\n",buf[0],buf[1]);
 870:../AR0330.c   **** //        return CY_U3P_SUCCESS;
 871:../AR0330.c   **** //    }
 872:../AR0330.c   **** //    else
 873:../AR0330.c   **** //    {
 874:../AR0330.c   **** //        CyU3PDebugPrint (4, "\rSensorI2cBusTest: SensorRead2B fail \r\n");
 875:../AR0330.c   **** //    }
 876:../AR0330.c   **** 
 877:../AR0330.c   ****     return 1;
 1349              		.loc 1 877 0
 1350 00ac 0130A0E3 		mov	r3, #1
 1351              	.L69:
 878:../AR0330.c   **** }
 1352              		.loc 1 878 0
 1353 00b0 0300A0E1 		mov	r0, r3
 1354 00b4 04D04BE2 		sub	sp, fp, #4
 1355              		@ sp needed
 1356 00b8 0088BDE8 		ldmfd	sp!, {fp, pc}
 1357              	.L71:
 1358              		.align	2
 1359              	.L70:
 1360 00bc 38010000 		.word	.LC9
 1361 00c0 64010000 		.word	.LC10
 1362 00c4 90010000 		.word	.LC11
 1363 00c8 B8010000 		.word	.LC12
 1364              		.cfi_endproc
 1365              	.LFE10:
 1367              		.section	.text.PLL_SETUP,"ax",%progbits
 1368              		.align	2
 1369              		.global	PLL_SETUP
 1371              	PLL_SETUP:
 1372              	.LFB11:
 879:../AR0330.c   **** 
 880:../AR0330.c   **** 
 881:../AR0330.c   **** void PLL_SETUP(void)
 882:../AR0330.c   **** {
 1373              		.loc 1 882 0
 1374              		.cfi_startproc
 1375              		@ args = 0, pretend = 0, frame = 0
 1376              		@ frame_needed = 1, uses_anonymous_args = 0
 1377              		@ link register save eliminated.
 1378 0000 04B02DE5 		str	fp, [sp, #-4]!
 1379              	.LCFI22:
 1380              		.cfi_def_cfa_offset 4
 1381              		.cfi_offset 11, -4
 1382 0004 00B08DE2 		add	fp, sp, #0
 1383              	.LCFI23:
 1384              		.cfi_def_cfa_register 11
 883:../AR0330.c   **** 
 884:../AR0330.c   **** 	// Assuming Input Clock of 24MHz.  Output Clock will be 98MHz
 885:../AR0330.c   **** 	// Op_pix_clk_div and op_sys_clk_div are ignored in parallel mode
 886:../AR0330.c   **** 
 887:../AR0330.c   **** 
 888:../AR0330.c   **** 
 889:../AR0330.c   **** }
 1385              		.loc 1 889 0
 1386 0008 00D04BE2 		sub	sp, fp, #0
 1387              		@ sp needed
 1388 000c 04B09DE4 		ldr	fp, [sp], #4
 1389 0010 1EFF2FE1 		bx	lr
 1390              		.cfi_endproc
 1391              	.LFE11:
 1393              		.section	.rodata
 1394 01e1 000000   		.align	2
 1395              	.LC13:
 1396 01e4 0D43414D 		.ascii	"\015CAMERA_Base_Config : read address = 0x%x data ="
 1396      4552415F 
 1396      42617365 
 1396      5F436F6E 
 1396      66696720 
 1397 0214 20307825 		.ascii	" 0x%x \015\012\000"
 1397      78200D0A 
 1397      00
 1398              		.section	.text.CAMERA_Debug,"ax",%progbits
 1399              		.align	2
 1400              		.global	CAMERA_Debug
 1402              	CAMERA_Debug:
 1403              	.LFB12:
 890:../AR0330.c   **** 
 891:../AR0330.c   **** //
 892:../AR0330.c   **** // 1280x720
 893:../AR0330.c   **** //
 894:../AR0330.c   **** /*
 895:../AR0330.c   **** void MIPI_SETUP(void0)
 896:../AR0330.c   **** {
 897:../AR0330.c   ****     uint8_t    buf[2];
 898:../AR0330.c   **** 
 899:../AR0330.c   ****     //
 900:../AR0330.c   **** 	// Disable Streaming
 901:../AR0330.c   ****     //
 902:../AR0330.c   **** 
 903:../AR0330.c   ****     SensorRead2B(SENSOR_ADDR_RD, 0x30, 0x1A, buf);
 904:../AR0330.c   ****     buf[0] = buf[0] & DISABLE_BYTE_BIT_2_MASK;
 905:../AR0330.c   ****     SensorWrite2B(SENSOR_ADDR_WR, 0x30, 0x1A, buf[1], buf[0]);
 906:../AR0330.c   **** 
 907:../AR0330.c   ****     //
 908:../AR0330.c   ****     // MIPI output
 909:../AR0330.c   ****     //
 910:../AR0330.c   **** 
 911:../AR0330.c   ****     SensorWrite2B(SENSOR_ADDR_WR, 0x31, 0xAE, 0x02, 0x04);
 912:../AR0330.c   **** 
 913:../AR0330.c   ****     //
 914:../AR0330.c   ****     // array readout setting
 915:../AR0330.c   ****     //
 916:../AR0330.c   **** 
 917:../AR0330.c   ****     SensorWrite2B(SENSOR_ADDR_WR, 0x30, 0x04, 0, 6);                   // X_ADDR_START
 918:../AR0330.c   **** 
 919:../AR0330.c   ****     SensorWrite2B(SENSOR_ADDR_WR, 0x30, 0x08, 0x09, 0x05);             // X_ADDR_END
 920:../AR0330.c   **** 
 921:../AR0330.c   ****     SensorWrite2B(SENSOR_ADDR_WR, 0x30, 0x02, 0, 120);                 // Y_ADDR_START
 922:../AR0330.c   **** 
 923:../AR0330.c   ****     SensorWrite2B(SENSOR_ADDR_WR, 0x30, 0x08, 0x05, 0x87);             // Y_ADDR_END
 924:../AR0330.c   **** 
 925:../AR0330.c   ****     //
 926:../AR0330.c   ****     // Sub-Sampling
 927:../AR0330.c   ****     //
 928:../AR0330.c   **** 
 929:../AR0330.c   ****     SensorWrite2B(SENSOR_ADDR_WR, 0x30, 0xA2, 0, 0x01);                // X_ODD_INCREMENT
 930:../AR0330.c   ****     SensorWrite2B(SENSOR_ADDR_WR, 0x30, 0xA6, 0, 0x01);                // Y_ODD_INCREMENT
 931:../AR0330.c   **** 
 932:../AR0330.c   ****     SensorWrite2B(SENSOR_ADDR_WR, 0x30, 0xA6, 0, 0x01);                // Y_ODD_INCREMENT
 933:../AR0330.c   **** 
 934:../AR0330.c   ****     SensorRead2B(SENSOR_ADDR_RD, 0x30, 0x40, buf);
 935:../AR0330.c   ****     buf[1] = buf[1] | 0x10;
 936:../AR0330.c   ****     SensorWrite2B(SENSOR_ADDR_WR, 0x30, 0xA6, buf[1], buf[0]);         // Row Bin
 937:../AR0330.c   **** 
 938:../AR0330.c   ****     SensorRead2B(SENSOR_ADDR_RD, 0x30, 0x40, buf);
 939:../AR0330.c   ****     buf[1] = buf[1] | 0x20;
 940:../AR0330.c   ****     SensorWrite2B(SENSOR_ADDR_WR, 0x30, 0x40, buf[1], buf[0]);         // Column Bin
 941:../AR0330.c   **** 
 942:../AR0330.c   ****     SensorRead2B(SENSOR_ADDR_RD, 0x30, 0x40, buf);
 943:../AR0330.c   ****     buf[1] = buf[1] | 0x02;
 944:../AR0330.c   ****     SensorWrite2B(SENSOR_ADDR_WR, 0x30, 0x40, buf[1], buf[0]);         // Column SF Bin
 945:../AR0330.c   **** 
 946:../AR0330.c   ****     SensorWrite2B(SENSOR_ADDR_WR, 0x3E, 0xD4, 0x8F, 0x6C);             // GrGb improved setting for
 947:../AR0330.c   **** 
 948:../AR0330.c   ****     SensorWrite2B(SENSOR_ADDR_WR, 0x3E, 0xD6, 0x66, 0xCC);             // GrGb improved setting for
 949:../AR0330.c   **** 
 950:../AR0330.c   ****     //
 951:../AR0330.c   ****     // Frame-Timing
 952:../AR0330.c   ****     //
 953:../AR0330.c   **** 
 954:../AR0330.c   ****     SensorWrite2B(SENSOR_ADDR_WR, 0x30, 0x0C, 0x41, 0x16);             // Line Length PCK
 955:../AR0330.c   **** 
 956:../AR0330.c   ****     SensorWrite2B(SENSOR_ADDR_WR, 0x30, 0x0A, 0x03, 0x28);             // Frame Length Lines
 957:../AR0330.c   **** 
 958:../AR0330.c   ****     SensorWrite2B(SENSOR_ADDR_WR, 0x30, 0x14, 0x00, 0x00);             // Fine Integration Time
 959:../AR0330.c   **** 
 960:../AR0330.c   ****     SensorWrite2B(SENSOR_ADDR_WR, 0x30, 0x12, 0x03, 0x27);             // Coarse Integration Time
 961:../AR0330.c   **** 
 962:../AR0330.c   ****     SensorWrite2B(SENSOR_ADDR_WR, 0x30, 0x42, 0x02, 0xB0);             // Extra_Delay
 963:../AR0330.c   **** 
 964:../AR0330.c   **** 	return;
 965:../AR0330.c   **** 
 966:../AR0330.c   **** }
 967:../AR0330.c   **** */
 968:../AR0330.c   **** 
 969:../AR0330.c   **** void CAMERA_Debug(void)
 970:../AR0330.c   **** {
 1404              		.loc 1 970 0
 1405              		.cfi_startproc
 1406              		@ args = 0, pretend = 0, frame = 16
 1407              		@ frame_needed = 1, uses_anonymous_args = 0
 1408 0000 00482DE9 		stmfd	sp!, {fp, lr}
 1409              	.LCFI24:
 1410              		.cfi_def_cfa_offset 8
 1411              		.cfi_offset 11, -8
 1412              		.cfi_offset 14, -4
 1413 0004 04B08DE2 		add	fp, sp, #4
 1414              	.LCFI25:
 1415              		.cfi_def_cfa 11, 4
 1416 0008 10D04DE2 		sub	sp, sp, #16
 971:../AR0330.c   **** 
 972:../AR0330.c   ****     uint8_t buf[2];
 973:../AR0330.c   ****     int regdata16;
 974:../AR0330.c   ****     int i;
 975:../AR0330.c   **** 
 976:../AR0330.c   ****     uint16_t tempdata;
 977:../AR0330.c   ****     uint16_t tempaddr;
 978:../AR0330.c   **** 
 979:../AR0330.c   **** 
 980:../AR0330.c   **** 	tempaddr = 0x3000;
 1417              		.loc 1 980 0
 1418 000c 033AA0E3 		mov	r3, #12288
 1419 0010 BA304BE1 		strh	r3, [fp, #-10]	@ movhi
 981:../AR0330.c   ****     for(i=0;i<256;i++)
 1420              		.loc 1 981 0
 1421 0014 0030A0E3 		mov	r3, #0
 1422 0018 08300BE5 		str	r3, [fp, #-8]
 1423 001c 0F0000EA 		b	.L74
 1424              	.L75:
 982:../AR0330.c   ****     {
 983:../AR0330.c   ****     	sensor_read(tempaddr, &tempdata);
 1425              		.loc 1 983 0 discriminator 2
 1426 0020 BA205BE1 		ldrh	r2, [fp, #-10]
 1427 0024 0E304BE2 		sub	r3, fp, #14
 1428 0028 0200A0E1 		mov	r0, r2
 1429 002c 0310A0E1 		mov	r1, r3
 1430 0030 FEFFFFEB 		bl	sensor_read
 984:../AR0330.c   ****     	CyU3PDebugPrint (4, "\rCAMERA_Base_Config : read address = 0x%x data = 0x%x \r\n",tempaddr,tem
 1431              		.loc 1 984 0 discriminator 2
 1432 0034 BA205BE1 		ldrh	r2, [fp, #-10]
 1433 0038 BE305BE1 		ldrh	r3, [fp, #-14]
 1434 003c 0400A0E3 		mov	r0, #4
 1435 0040 CC129FE5 		ldr	r1, .L76
 1436 0044 FEFFFFEB 		bl	CyU3PDebugPrint
 985:../AR0330.c   ****     	tempaddr = tempaddr + 2;
 1437              		.loc 1 985 0 discriminator 2
 1438 0048 BA305BE1 		ldrh	r3, [fp, #-10]	@ movhi
 1439 004c 023083E2 		add	r3, r3, #2
 1440 0050 BA304BE1 		strh	r3, [fp, #-10]	@ movhi
 981:../AR0330.c   ****     {
 1441              		.loc 1 981 0 discriminator 2
 1442 0054 08301BE5 		ldr	r3, [fp, #-8]
 1443 0058 013083E2 		add	r3, r3, #1
 1444 005c 08300BE5 		str	r3, [fp, #-8]
 1445              	.L74:
 981:../AR0330.c   ****     {
 1446              		.loc 1 981 0 is_stmt 0 discriminator 1
 1447 0060 08301BE5 		ldr	r3, [fp, #-8]
 1448 0064 FF0053E3 		cmp	r3, #255
 1449 0068 ECFFFFDA 		ble	.L75
 986:../AR0330.c   ****     }
 987:../AR0330.c   **** 
 988:../AR0330.c   **** 	tempaddr = 0x3ED0;
 1450              		.loc 1 988 0 is_stmt 1
 1451 006c A4329FE5 		ldr	r3, .L76+4
 1452 0070 BA304BE1 		strh	r3, [fp, #-10]	@ movhi
 989:../AR0330.c   **** 	sensor_read(tempaddr, &tempdata);
 1453              		.loc 1 989 0
 1454 0074 BA205BE1 		ldrh	r2, [fp, #-10]
 1455 0078 0E304BE2 		sub	r3, fp, #14
 1456 007c 0200A0E1 		mov	r0, r2
 1457 0080 0310A0E1 		mov	r1, r3
 1458 0084 FEFFFFEB 		bl	sensor_read
 990:../AR0330.c   **** 	CyU3PDebugPrint (4, "\rCAMERA_Base_Config : read address = 0x%x data = 0x%x \r\n",tempaddr,tempdat
 1459              		.loc 1 990 0
 1460 0088 BA205BE1 		ldrh	r2, [fp, #-10]
 1461 008c BE305BE1 		ldrh	r3, [fp, #-14]
 1462 0090 0400A0E3 		mov	r0, #4
 1463 0094 78129FE5 		ldr	r1, .L76
 1464 0098 FEFFFFEB 		bl	CyU3PDebugPrint
 991:../AR0330.c   **** 
 992:../AR0330.c   **** 	tempaddr = 0x3ED2;
 1465              		.loc 1 992 0
 1466 009c 78329FE5 		ldr	r3, .L76+8
 1467 00a0 BA304BE1 		strh	r3, [fp, #-10]	@ movhi
 993:../AR0330.c   **** 	sensor_read(tempaddr, &tempdata);
 1468              		.loc 1 993 0
 1469 00a4 BA205BE1 		ldrh	r2, [fp, #-10]
 1470 00a8 0E304BE2 		sub	r3, fp, #14
 1471 00ac 0200A0E1 		mov	r0, r2
 1472 00b0 0310A0E1 		mov	r1, r3
 1473 00b4 FEFFFFEB 		bl	sensor_read
 994:../AR0330.c   **** 	CyU3PDebugPrint (4, "\rCAMERA_Base_Config : read address = 0x%x data = 0x%x \r\n",tempaddr,tempdat
 1474              		.loc 1 994 0
 1475 00b8 BA205BE1 		ldrh	r2, [fp, #-10]
 1476 00bc BE305BE1 		ldrh	r3, [fp, #-14]
 1477 00c0 0400A0E3 		mov	r0, #4
 1478 00c4 48129FE5 		ldr	r1, .L76
 1479 00c8 FEFFFFEB 		bl	CyU3PDebugPrint
 995:../AR0330.c   **** 
 996:../AR0330.c   **** 	tempaddr = 0x3ED4;
 1480              		.loc 1 996 0
 1481 00cc 4C329FE5 		ldr	r3, .L76+12
 1482 00d0 BA304BE1 		strh	r3, [fp, #-10]	@ movhi
 997:../AR0330.c   **** 	sensor_read(tempaddr, &tempdata);
 1483              		.loc 1 997 0
 1484 00d4 BA205BE1 		ldrh	r2, [fp, #-10]
 1485 00d8 0E304BE2 		sub	r3, fp, #14
 1486 00dc 0200A0E1 		mov	r0, r2
 1487 00e0 0310A0E1 		mov	r1, r3
 1488 00e4 FEFFFFEB 		bl	sensor_read
 998:../AR0330.c   **** 	CyU3PDebugPrint (4, "\rCAMERA_Base_Config : read address = 0x%x data = 0x%x \r\n",tempaddr,tempdat
 1489              		.loc 1 998 0
 1490 00e8 BA205BE1 		ldrh	r2, [fp, #-10]
 1491 00ec BE305BE1 		ldrh	r3, [fp, #-14]
 1492 00f0 0400A0E3 		mov	r0, #4
 1493 00f4 18129FE5 		ldr	r1, .L76
 1494 00f8 FEFFFFEB 		bl	CyU3PDebugPrint
 999:../AR0330.c   **** 
1000:../AR0330.c   **** 	tempaddr = 0x3ED6;
 1495              		.loc 1 1000 0
 1496 00fc 20329FE5 		ldr	r3, .L76+16
 1497 0100 BA304BE1 		strh	r3, [fp, #-10]	@ movhi
1001:../AR0330.c   **** 	sensor_read(tempaddr, &tempdata);
 1498              		.loc 1 1001 0
 1499 0104 BA205BE1 		ldrh	r2, [fp, #-10]
 1500 0108 0E304BE2 		sub	r3, fp, #14
 1501 010c 0200A0E1 		mov	r0, r2
 1502 0110 0310A0E1 		mov	r1, r3
 1503 0114 FEFFFFEB 		bl	sensor_read
1002:../AR0330.c   **** 	CyU3PDebugPrint (4, "\rCAMERA_Base_Config : read address = 0x%x data = 0x%x \r\n",tempaddr,tempdat
 1504              		.loc 1 1002 0
 1505 0118 BA205BE1 		ldrh	r2, [fp, #-10]
 1506 011c BE305BE1 		ldrh	r3, [fp, #-14]
 1507 0120 0400A0E3 		mov	r0, #4
 1508 0124 E8119FE5 		ldr	r1, .L76
 1509 0128 FEFFFFEB 		bl	CyU3PDebugPrint
1003:../AR0330.c   **** 
1004:../AR0330.c   **** 	tempaddr = 0x3ED8;
 1510              		.loc 1 1004 0
 1511 012c F4319FE5 		ldr	r3, .L76+20
 1512 0130 BA304BE1 		strh	r3, [fp, #-10]	@ movhi
1005:../AR0330.c   **** 	sensor_read(tempaddr, &tempdata);
 1513              		.loc 1 1005 0
 1514 0134 BA205BE1 		ldrh	r2, [fp, #-10]
 1515 0138 0E304BE2 		sub	r3, fp, #14
 1516 013c 0200A0E1 		mov	r0, r2
 1517 0140 0310A0E1 		mov	r1, r3
 1518 0144 FEFFFFEB 		bl	sensor_read
1006:../AR0330.c   **** 	CyU3PDebugPrint (4, "\rCAMERA_Base_Config : read address = 0x%x data = 0x%x \r\n",tempaddr,tempdat
 1519              		.loc 1 1006 0
 1520 0148 BA205BE1 		ldrh	r2, [fp, #-10]
 1521 014c BE305BE1 		ldrh	r3, [fp, #-14]
 1522 0150 0400A0E3 		mov	r0, #4
 1523 0154 B8119FE5 		ldr	r1, .L76
 1524 0158 FEFFFFEB 		bl	CyU3PDebugPrint
1007:../AR0330.c   **** 
1008:../AR0330.c   **** 	tempaddr = 0x3EDA;
 1525              		.loc 1 1008 0
 1526 015c C8319FE5 		ldr	r3, .L76+24
 1527 0160 BA304BE1 		strh	r3, [fp, #-10]	@ movhi
1009:../AR0330.c   **** 	sensor_read(tempaddr, &tempdata);
 1528              		.loc 1 1009 0
 1529 0164 BA205BE1 		ldrh	r2, [fp, #-10]
 1530 0168 0E304BE2 		sub	r3, fp, #14
 1531 016c 0200A0E1 		mov	r0, r2
 1532 0170 0310A0E1 		mov	r1, r3
 1533 0174 FEFFFFEB 		bl	sensor_read
1010:../AR0330.c   **** 	CyU3PDebugPrint (4, "\rCAMERA_Base_Config : read address = 0x%x data = 0x%x \r\n",tempaddr,tempdat
 1534              		.loc 1 1010 0
 1535 0178 BA205BE1 		ldrh	r2, [fp, #-10]
 1536 017c BE305BE1 		ldrh	r3, [fp, #-14]
 1537 0180 0400A0E3 		mov	r0, #4
 1538 0184 88119FE5 		ldr	r1, .L76
 1539 0188 FEFFFFEB 		bl	CyU3PDebugPrint
1011:../AR0330.c   **** 
1012:../AR0330.c   **** 	tempaddr = 0x3EDC;
 1540              		.loc 1 1012 0
 1541 018c 9C319FE5 		ldr	r3, .L76+28
 1542 0190 BA304BE1 		strh	r3, [fp, #-10]	@ movhi
1013:../AR0330.c   **** 	sensor_read(tempaddr, &tempdata);
 1543              		.loc 1 1013 0
 1544 0194 BA205BE1 		ldrh	r2, [fp, #-10]
 1545 0198 0E304BE2 		sub	r3, fp, #14
 1546 019c 0200A0E1 		mov	r0, r2
 1547 01a0 0310A0E1 		mov	r1, r3
 1548 01a4 FEFFFFEB 		bl	sensor_read
1014:../AR0330.c   **** 	CyU3PDebugPrint (4, "\rCAMERA_Base_Config : read address = 0x%x data = 0x%x \r\n",tempaddr,tempdat
 1549              		.loc 1 1014 0
 1550 01a8 BA205BE1 		ldrh	r2, [fp, #-10]
 1551 01ac BE305BE1 		ldrh	r3, [fp, #-14]
 1552 01b0 0400A0E3 		mov	r0, #4
 1553 01b4 58119FE5 		ldr	r1, .L76
 1554 01b8 FEFFFFEB 		bl	CyU3PDebugPrint
1015:../AR0330.c   **** 
1016:../AR0330.c   **** 	tempaddr = 0x3EDE;
 1555              		.loc 1 1016 0
 1556 01bc 70319FE5 		ldr	r3, .L76+32
 1557 01c0 BA304BE1 		strh	r3, [fp, #-10]	@ movhi
1017:../AR0330.c   **** 	sensor_read(tempaddr, &tempdata);
 1558              		.loc 1 1017 0
 1559 01c4 BA205BE1 		ldrh	r2, [fp, #-10]
 1560 01c8 0E304BE2 		sub	r3, fp, #14
 1561 01cc 0200A0E1 		mov	r0, r2
 1562 01d0 0310A0E1 		mov	r1, r3
 1563 01d4 FEFFFFEB 		bl	sensor_read
1018:../AR0330.c   **** 	CyU3PDebugPrint (4, "\rCAMERA_Base_Config : read address = 0x%x data = 0x%x \r\n",tempaddr,tempdat
 1564              		.loc 1 1018 0
 1565 01d8 BA205BE1 		ldrh	r2, [fp, #-10]
 1566 01dc BE305BE1 		ldrh	r3, [fp, #-14]
 1567 01e0 0400A0E3 		mov	r0, #4
 1568 01e4 28119FE5 		ldr	r1, .L76
 1569 01e8 FEFFFFEB 		bl	CyU3PDebugPrint
1019:../AR0330.c   **** 
1020:../AR0330.c   **** 	tempaddr = 0x3EE0;
 1570              		.loc 1 1020 0
 1571 01ec 44319FE5 		ldr	r3, .L76+36
 1572 01f0 BA304BE1 		strh	r3, [fp, #-10]	@ movhi
1021:../AR0330.c   **** 	sensor_read(tempaddr, &tempdata);
 1573              		.loc 1 1021 0
 1574 01f4 BA205BE1 		ldrh	r2, [fp, #-10]
 1575 01f8 0E304BE2 		sub	r3, fp, #14
 1576 01fc 0200A0E1 		mov	r0, r2
 1577 0200 0310A0E1 		mov	r1, r3
 1578 0204 FEFFFFEB 		bl	sensor_read
1022:../AR0330.c   **** 	CyU3PDebugPrint (4, "\rCAMERA_Base_Config : read address = 0x%x data = 0x%x \r\n",tempaddr,tempdat
 1579              		.loc 1 1022 0
 1580 0208 BA205BE1 		ldrh	r2, [fp, #-10]
 1581 020c BE305BE1 		ldrh	r3, [fp, #-14]
 1582 0210 0400A0E3 		mov	r0, #4
 1583 0214 F8109FE5 		ldr	r1, .L76
 1584 0218 FEFFFFEB 		bl	CyU3PDebugPrint
1023:../AR0330.c   **** 
1024:../AR0330.c   **** 	tempaddr = 0x3EE6;
 1585              		.loc 1 1024 0
 1586 021c 18319FE5 		ldr	r3, .L76+40
 1587 0220 BA304BE1 		strh	r3, [fp, #-10]	@ movhi
1025:../AR0330.c   **** 	sensor_read(tempaddr, &tempdata);
 1588              		.loc 1 1025 0
 1589 0224 BA205BE1 		ldrh	r2, [fp, #-10]
 1590 0228 0E304BE2 		sub	r3, fp, #14
 1591 022c 0200A0E1 		mov	r0, r2
 1592 0230 0310A0E1 		mov	r1, r3
 1593 0234 FEFFFFEB 		bl	sensor_read
1026:../AR0330.c   **** 	CyU3PDebugPrint (4, "\rCAMERA_Base_Config : read address = 0x%x data = 0x%x \r\n",tempaddr,tempdat
 1594              		.loc 1 1026 0
 1595 0238 BA205BE1 		ldrh	r2, [fp, #-10]
 1596 023c BE305BE1 		ldrh	r3, [fp, #-14]
 1597 0240 0400A0E3 		mov	r0, #4
 1598 0244 C8109FE5 		ldr	r1, .L76
 1599 0248 FEFFFFEB 		bl	CyU3PDebugPrint
1027:../AR0330.c   **** 
1028:../AR0330.c   **** 	tempaddr = 0x3EE8;
 1600              		.loc 1 1028 0
 1601 024c EC309FE5 		ldr	r3, .L76+44
 1602 0250 BA304BE1 		strh	r3, [fp, #-10]	@ movhi
1029:../AR0330.c   **** 	sensor_read(tempaddr, &tempdata);
 1603              		.loc 1 1029 0
 1604 0254 BA205BE1 		ldrh	r2, [fp, #-10]
 1605 0258 0E304BE2 		sub	r3, fp, #14
 1606 025c 0200A0E1 		mov	r0, r2
 1607 0260 0310A0E1 		mov	r1, r3
 1608 0264 FEFFFFEB 		bl	sensor_read
1030:../AR0330.c   **** 	CyU3PDebugPrint (4, "\rCAMERA_Base_Config : read address = 0x%x data = 0x%x \r\n",tempaddr,tempdat
 1609              		.loc 1 1030 0
 1610 0268 BA205BE1 		ldrh	r2, [fp, #-10]
 1611 026c BE305BE1 		ldrh	r3, [fp, #-14]
 1612 0270 0400A0E3 		mov	r0, #4
 1613 0274 98109FE5 		ldr	r1, .L76
 1614 0278 FEFFFFEB 		bl	CyU3PDebugPrint
1031:../AR0330.c   **** 
1032:../AR0330.c   **** 
1033:../AR0330.c   **** 	tempaddr = 0x3EEA;
 1615              		.loc 1 1033 0
 1616 027c C0309FE5 		ldr	r3, .L76+48
 1617 0280 BA304BE1 		strh	r3, [fp, #-10]	@ movhi
1034:../AR0330.c   **** 	sensor_read(tempaddr, &tempdata);
 1618              		.loc 1 1034 0
 1619 0284 BA205BE1 		ldrh	r2, [fp, #-10]
 1620 0288 0E304BE2 		sub	r3, fp, #14
 1621 028c 0200A0E1 		mov	r0, r2
 1622 0290 0310A0E1 		mov	r1, r3
 1623 0294 FEFFFFEB 		bl	sensor_read
1035:../AR0330.c   **** 	CyU3PDebugPrint (4, "\rCAMERA_Base_Config : read address = 0x%x data = 0x%x \r\n",tempaddr,tempdat
 1624              		.loc 1 1035 0
 1625 0298 BA205BE1 		ldrh	r2, [fp, #-10]
 1626 029c BE305BE1 		ldrh	r3, [fp, #-14]
 1627 02a0 0400A0E3 		mov	r0, #4
 1628 02a4 68109FE5 		ldr	r1, .L76
 1629 02a8 FEFFFFEB 		bl	CyU3PDebugPrint
1036:../AR0330.c   **** 
1037:../AR0330.c   **** 	tempaddr = 0x3F06;
 1630              		.loc 1 1037 0
 1631 02ac 94309FE5 		ldr	r3, .L76+52
 1632 02b0 BA304BE1 		strh	r3, [fp, #-10]	@ movhi
1038:../AR0330.c   **** 	sensor_read(tempaddr, &tempdata);
 1633              		.loc 1 1038 0
 1634 02b4 BA205BE1 		ldrh	r2, [fp, #-10]
 1635 02b8 0E304BE2 		sub	r3, fp, #14
 1636 02bc 0200A0E1 		mov	r0, r2
 1637 02c0 0310A0E1 		mov	r1, r3
 1638 02c4 FEFFFFEB 		bl	sensor_read
1039:../AR0330.c   **** 	CyU3PDebugPrint (4, "\rCAMERA_Base_Config : read address = 0x%x data = 0x%x \r\n",tempaddr,tempdat
 1639              		.loc 1 1039 0
 1640 02c8 BA205BE1 		ldrh	r2, [fp, #-10]
 1641 02cc BE305BE1 		ldrh	r3, [fp, #-14]
 1642 02d0 0400A0E3 		mov	r0, #4
 1643 02d4 38109FE5 		ldr	r1, .L76
 1644 02d8 FEFFFFEB 		bl	CyU3PDebugPrint
1040:../AR0330.c   **** 
1041:../AR0330.c   **** 	tempaddr = 0x305E;
 1645              		.loc 1 1041 0
 1646 02dc 68309FE5 		ldr	r3, .L76+56
 1647 02e0 BA304BE1 		strh	r3, [fp, #-10]	@ movhi
1042:../AR0330.c   **** 	sensor_read(tempaddr, &tempdata);
 1648              		.loc 1 1042 0
 1649 02e4 BA205BE1 		ldrh	r2, [fp, #-10]
 1650 02e8 0E304BE2 		sub	r3, fp, #14
 1651 02ec 0200A0E1 		mov	r0, r2
 1652 02f0 0310A0E1 		mov	r1, r3
 1653 02f4 FEFFFFEB 		bl	sensor_read
1043:../AR0330.c   **** 	CyU3PDebugPrint (4, "\rCAMERA_Base_Config : read address = 0x%x data = 0x%x \r\n",tempaddr,tempdat
 1654              		.loc 1 1043 0
 1655 02f8 BA205BE1 		ldrh	r2, [fp, #-10]
 1656 02fc BE305BE1 		ldrh	r3, [fp, #-14]
 1657 0300 0400A0E3 		mov	r0, #4
 1658 0304 08109FE5 		ldr	r1, .L76
 1659 0308 FEFFFFEB 		bl	CyU3PDebugPrint
1044:../AR0330.c   **** 
1045:../AR0330.c   **** 
1046:../AR0330.c   **** }
 1660              		.loc 1 1046 0
 1661 030c 04D04BE2 		sub	sp, fp, #4
 1662              		@ sp needed
 1663 0310 0088BDE8 		ldmfd	sp!, {fp, pc}
 1664              	.L77:
 1665              		.align	2
 1666              	.L76:
 1667 0314 E4010000 		.word	.LC13
 1668 0318 D03E0000 		.word	16080
 1669 031c D23E0000 		.word	16082
 1670 0320 D43E0000 		.word	16084
 1671 0324 D63E0000 		.word	16086
 1672 0328 D83E0000 		.word	16088
 1673 032c DA3E0000 		.word	16090
 1674 0330 DC3E0000 		.word	16092
 1675 0334 DE3E0000 		.word	16094
 1676 0338 E03E0000 		.word	16096
 1677 033c E63E0000 		.word	16102
 1678 0340 E83E0000 		.word	16104
 1679 0344 EA3E0000 		.word	16106
 1680 0348 063F0000 		.word	16134
 1681 034c 5E300000 		.word	12382
 1682              		.cfi_endproc
 1683              	.LFE12:
 1685              		.section	.rodata
 1686 021d 000000   		.align	2
 1687              	.LC14:
 1688 0220 0D43616D 		.ascii	"\015Camera_API : CAMERA_Base_Config \015\012\000"
 1688      6572615F 
 1688      41504920 
 1688      3A204341 
 1688      4D455241 
 1689              		.section	.text.CAMERA_Base_Config,"ax",%progbits
 1690              		.align	2
 1691              		.global	CAMERA_Base_Config
 1693              	CAMERA_Base_Config:
 1694              	.LFB13:
1047:../AR0330.c   **** 
1048:../AR0330.c   **** //
1049:../AR0330.c   **** // FUNCTION NAME.
1050:../AR0330.c   **** //      CAMERA_Base_Config
1051:../AR0330.c   **** //
1052:../AR0330.c   **** // FUNCTIONAL DESCRIPTION.
1053:../AR0330.c   **** //
1054:../AR0330.c   **** //
1055:../AR0330.c   **** // ENTRY PARAMETERS.
1056:../AR0330.c   **** //      void
1057:../AR0330.c   **** //
1058:../AR0330.c   **** // EXIT PARAMETERS.
1059:../AR0330.c   **** //      Function Return
1060:../AR0330.c   **** //
1061:../AR0330.c   **** void CAMERA_Base_Config(void)
1062:../AR0330.c   **** {
 1695              		.loc 1 1062 0
 1696              		.cfi_startproc
 1697              		@ args = 0, pretend = 0, frame = 8
 1698              		@ frame_needed = 1, uses_anonymous_args = 0
 1699 0000 00482DE9 		stmfd	sp!, {fp, lr}
 1700              	.LCFI26:
 1701              		.cfi_def_cfa_offset 8
 1702              		.cfi_offset 11, -8
 1703              		.cfi_offset 14, -4
 1704 0004 04B08DE2 		add	fp, sp, #4
 1705              	.LCFI27:
 1706              		.cfi_def_cfa 11, 4
 1707 0008 10D04DE2 		sub	sp, sp, #16
1063:../AR0330.c   ****     uint8_t buf[2];
1064:../AR0330.c   ****     int regdata16;
1065:../AR0330.c   **** 
1066:../AR0330.c   ****     uint16_t tempdata;
1067:../AR0330.c   ****     uint16_t tempaddr;
1068:../AR0330.c   **** 
1069:../AR0330.c   **** 
1070:../AR0330.c   ****     //
1071:../AR0330.c   ****     // Reset Sensor
1072:../AR0330.c   ****     //
1073:../AR0330.c   ****     tempaddr = 0x301A;
 1708              		.loc 1 1073 0
 1709 000c 30319FE5 		ldr	r3, .L80
 1710 0010 B6304BE1 		strh	r3, [fp, #-6]	@ movhi
1074:../AR0330.c   ****     tempdata = 0x0059;
 1711              		.loc 1 1074 0
 1712 0014 5930A0E3 		mov	r3, #89
 1713 0018 BA304BE1 		strh	r3, [fp, #-10]	@ movhi
1075:../AR0330.c   ****     sensor_write(tempaddr, tempdata);
 1714              		.loc 1 1075 0
 1715 001c BA305BE1 		ldrh	r3, [fp, #-10]
 1716 0020 B6205BE1 		ldrh	r2, [fp, #-6]
 1717 0024 0200A0E1 		mov	r0, r2
 1718 0028 0310A0E1 		mov	r1, r3
 1719 002c FEFFFFEB 		bl	sensor_write
1076:../AR0330.c   **** 
1077:../AR0330.c   ****     CyU3PThreadSleep(100);
 1720              		.loc 1 1077 0
 1721 0030 6400A0E3 		mov	r0, #100
 1722 0034 FEFFFFEB 		bl	_tx_thread_sleep
1078:../AR0330.c   **** 
1079:../AR0330.c   ****     //
1080:../AR0330.c   ****     // 2. read sensor ID and check protocol
1081:../AR0330.c   ****     //
1082:../AR0330.c   **** 
1083:../AR0330.c   ****     SensorWrite2B(SENSOR_ADDR_WR, 0x30, 0x00, 0x00, 0x00);
 1723              		.loc 1 1083 0
 1724 0038 0030A0E3 		mov	r3, #0
 1725 003c 00308DE5 		str	r3, [sp]
 1726 0040 2000A0E3 		mov	r0, #32
 1727 0044 3010A0E3 		mov	r1, #48
 1728 0048 0020A0E3 		mov	r2, #0
 1729 004c 0030A0E3 		mov	r3, #0
 1730 0050 FEFFFFEB 		bl	SensorWrite2B
1084:../AR0330.c   ****     CyU3PDebugPrint (4, "\rCamera_API : CAMERA_Base_Config \r\n");
 1731              		.loc 1 1084 0
 1732 0054 0400A0E3 		mov	r0, #4
 1733 0058 E8109FE5 		ldr	r1, .L80+4
 1734 005c FEFFFFEB 		bl	CyU3PDebugPrint
1085:../AR0330.c   **** 
1086:../AR0330.c   ****     tempaddr = 0x3000;
 1735              		.loc 1 1086 0
 1736 0060 033AA0E3 		mov	r3, #12288
 1737 0064 B6304BE1 		strh	r3, [fp, #-6]	@ movhi
1087:../AR0330.c   ****     sensor_read(tempaddr, &tempdata);
 1738              		.loc 1 1087 0
 1739 0068 B6205BE1 		ldrh	r2, [fp, #-6]
 1740 006c 0A304BE2 		sub	r3, fp, #10
 1741 0070 0200A0E1 		mov	r0, r2
 1742 0074 0310A0E1 		mov	r1, r3
 1743 0078 FEFFFFEB 		bl	sensor_read
1088:../AR0330.c   ****     CyU3PDebugPrint (4, "\rCAMERA_Base_Config : read address = 0x%x data = 0x%x \r\n",tempaddr,temp
 1744              		.loc 1 1088 0
 1745 007c B6205BE1 		ldrh	r2, [fp, #-6]
 1746 0080 BA305BE1 		ldrh	r3, [fp, #-10]
 1747 0084 0400A0E3 		mov	r0, #4
 1748 0088 BC109FE5 		ldr	r1, .L80+8
 1749 008c FEFFFFEB 		bl	CyU3PDebugPrint
1089:../AR0330.c   **** 
1090:../AR0330.c   ****     // check OTPM Version
1091:../AR0330.c   ****     tempaddr = 0x300E;
 1750              		.loc 1 1091 0
 1751 0090 B8309FE5 		ldr	r3, .L80+12
 1752 0094 B6304BE1 		strh	r3, [fp, #-6]	@ movhi
1092:../AR0330.c   ****     sensor_read(tempaddr, &tempdata);
 1753              		.loc 1 1092 0
 1754 0098 B6205BE1 		ldrh	r2, [fp, #-6]
 1755 009c 0A304BE2 		sub	r3, fp, #10
 1756 00a0 0200A0E1 		mov	r0, r2
 1757 00a4 0310A0E1 		mov	r1, r3
 1758 00a8 FEFFFFEB 		bl	sensor_read
1093:../AR0330.c   ****     CyU3PDebugPrint (4, "\rCAMERA_Base_Config : read address = 0x%x data = 0x%x \r\n",tempaddr,temp
 1759              		.loc 1 1093 0
 1760 00ac B6205BE1 		ldrh	r2, [fp, #-6]
 1761 00b0 BA305BE1 		ldrh	r3, [fp, #-10]
 1762 00b4 0400A0E3 		mov	r0, #4
 1763 00b8 8C109FE5 		ldr	r1, .L80+8
 1764 00bc FEFFFFEB 		bl	CyU3PDebugPrint
1094:../AR0330.c   **** 
1095:../AR0330.c   ****     tempaddr = 0x30F0;
 1765              		.loc 1 1095 0
 1766 00c0 8C309FE5 		ldr	r3, .L80+16
 1767 00c4 B6304BE1 		strh	r3, [fp, #-6]	@ movhi
1096:../AR0330.c   ****     sensor_read(tempaddr, &tempdata);
 1768              		.loc 1 1096 0
 1769 00c8 B6205BE1 		ldrh	r2, [fp, #-6]
 1770 00cc 0A304BE2 		sub	r3, fp, #10
 1771 00d0 0200A0E1 		mov	r0, r2
 1772 00d4 0310A0E1 		mov	r1, r3
 1773 00d8 FEFFFFEB 		bl	sensor_read
1097:../AR0330.c   ****     CyU3PDebugPrint (4, "\rCAMERA_Base_Config : read address = 0x%x data = 0x%x \r\n",tempaddr,temp
 1774              		.loc 1 1097 0
 1775 00dc B6205BE1 		ldrh	r2, [fp, #-6]
 1776 00e0 BA305BE1 		ldrh	r3, [fp, #-10]
 1777 00e4 0400A0E3 		mov	r0, #4
 1778 00e8 5C109FE5 		ldr	r1, .L80+8
 1779 00ec FEFFFFEB 		bl	CyU3PDebugPrint
1098:../AR0330.c   **** 
1099:../AR0330.c   ****     tempaddr = 0x3072;
 1780              		.loc 1 1099 0
 1781 00f0 60309FE5 		ldr	r3, .L80+20
 1782 00f4 B6304BE1 		strh	r3, [fp, #-6]	@ movhi
1100:../AR0330.c   ****     sensor_read(tempaddr, &tempdata);
 1783              		.loc 1 1100 0
 1784 00f8 B6205BE1 		ldrh	r2, [fp, #-6]
 1785 00fc 0A304BE2 		sub	r3, fp, #10
 1786 0100 0200A0E1 		mov	r0, r2
 1787 0104 0310A0E1 		mov	r1, r3
 1788 0108 FEFFFFEB 		bl	sensor_read
1101:../AR0330.c   ****     CyU3PDebugPrint (4, "\rCAMERA_Base_Config : read address = 0x%x data = 0x%x \r\n",tempaddr,temp
 1789              		.loc 1 1101 0
 1790 010c B6205BE1 		ldrh	r2, [fp, #-6]
 1791 0110 BA305BE1 		ldrh	r3, [fp, #-10]
 1792 0114 0400A0E3 		mov	r0, #4
 1793 0118 2C109FE5 		ldr	r1, .L80+8
 1794 011c FEFFFFEB 		bl	CyU3PDebugPrint
1102:../AR0330.c   **** 
1103:../AR0330.c   **** 
1104:../AR0330.c   **** 
1105:../AR0330.c   ****     // Setup PLL/Timing/Address Settings
1106:../AR0330.c   **** //    sensor_write_array(AR0330_SetOtherRegs, 40);
1107:../AR0330.c   ****     sensor_write_array(AR0330_SetOtherRegs, 48);
 1795              		.loc 1 1107 0
 1796 0120 34009FE5 		ldr	r0, .L80+24
 1797 0124 3010A0E3 		mov	r1, #48
 1798 0128 FEFFFFEB 		bl	sensor_write_array
1108:../AR0330.c   **** 
1109:../AR0330.c   ****     // setup OTPMv5 register
1110:../AR0330.c   ****     sensor_write_array(AR0330_OTPMVsettingsV5, 4);
 1799              		.loc 1 1110 0
 1800 012c 2C009FE5 		ldr	r0, .L80+28
 1801 0130 0410A0E3 		mov	r1, #4
 1802 0134 FEFFFFEB 		bl	sensor_write_array
1111:../AR0330.c   **** 
1112:../AR0330.c   ****     // PLL setting for 1 Lane
1113:../AR0330.c   ****  //   sensor_write_array(AR0330_setPLLRges1Lane, 4);
1114:../AR0330.c   **** 
1115:../AR0330.c   **** 
1116:../AR0330.c   ****     // PLL setting for 2 Lane
1117:../AR0330.c   **** //    sensor_write_array(AR0330_setPLLRges2Lane, 4);
1118:../AR0330.c   **** 
1119:../AR0330.c   ****     // using testing pattern
1120:../AR0330.c   ****  //   sensor_write_array(test_pattern_setting, 1);
1121:../AR0330.c   **** 
1122:../AR0330.c   **** 
1123:../AR0330.c   **** //     sensor_write_array(sensor_default_regs_OTPM_V5, 34);
1124:../AR0330.c   **** 
1125:../AR0330.c   **** //    tempaddr = 0x301A;
1126:../AR0330.c   **** //    sensor_read(tempaddr, &tempdata);
1127:../AR0330.c   **** //    CyU3PDebugPrint (4, "\rCAMERA_Base_Config : read address = 0x%x data = 0x%x \r\n",tempaddr,te
1128:../AR0330.c   **** 
1129:../AR0330.c   **** //    tempaddr = 0x3048;
1130:../AR0330.c   **** //    sensor_read(tempaddr, &tempdata);
1131:../AR0330.c   **** //    CyU3PDebugPrint (4, "\rCAMERA_Base_Config : read address = 0x%x data = 0x%x \r\n",tempaddr,te
1132:../AR0330.c   **** 
1133:../AR0330.c   **** #if 0
1134:../AR0330.c   **** 
1135:../AR0330.c   ****     //
1136:../AR0330.c   ****     // 2. read sensor ID and check protocol
1137:../AR0330.c   ****     //
1138:../AR0330.c   ****     CyU3PDebugPrint (4, "\rCamera_API : Reset Sensor \r\n");
1139:../AR0330.c   ****     SensorWrite2B(SENSOR_ADDR_WR, 0x30, 0x1A, 0x00, 0x01);     // Reset Sensor
1140:../AR0330.c   **** 
1141:../AR0330.c   ****     CyU3PThreadSleep(200);
1142:../AR0330.c   **** 
1143:../AR0330.c   ****     //
1144:../AR0330.c   ****     // 3. configure the output interface
1145:../AR0330.c   ****     //
1146:../AR0330.c   ****     CyU3PDebugPrint (4, "\rCamera_API : Reset Sensor \r\n");
1147:../AR0330.c   ****     SensorWrite2B(SENSOR_ADDR_WR, 0x30, 0x1A, 0x02, 0x04);
1148:../AR0330.c   **** 
1149:../AR0330.c   **** 
1150:../AR0330.c   ****     //
1151:../AR0330.c   ****     // 4. Disable Streaming
1152:../AR0330.c   ****     //
1153:../AR0330.c   ****     SensorRead2B(SENSOR_ADDR_RD, 0x30, 0x1A, buf);
1154:../AR0330.c   ****     buf[0] = buf[0] | 0x04;
1155:../AR0330.c   ****     SensorWrite2B(SENSOR_ADDR_WR, 0x30, 0x1A, buf[1], buf[0]);
1156:../AR0330.c   **** 
1157:../AR0330.c   ****     CyU3PThreadSleep(200);
1158:../AR0330.c   **** 
1159:../AR0330.c   ****     //
1160:../AR0330.c   ****     // 5. Drive Pins
1161:../AR0330.c   ****     //
1162:../AR0330.c   ****     SensorRead2B(SENSOR_ADDR_RD, 0x30, 0x1A, buf);
1163:../AR0330.c   ****     buf[0] = buf[0] | 0x40;
1164:../AR0330.c   ****     SensorWrite2B(SENSOR_ADDR_WR, 0x30, 0x1A, buf[1], buf[0]);
1165:../AR0330.c   **** 
1166:../AR0330.c   ****     //
1167:../AR0330.c   ****     // 6. Parallel Enable
1168:../AR0330.c   ****     //
1169:../AR0330.c   ****     SensorRead2B(SENSOR_ADDR_RD, 0x30, 0x1A, buf);
1170:../AR0330.c   ****     buf[0] = buf[0] | 0x80;
1171:../AR0330.c   ****     SensorWrite2B(SENSOR_ADDR_WR, 0x30, 0x1A, buf[1], buf[0]);
1172:../AR0330.c   **** 
1173:../AR0330.c   ****     //
1174:../AR0330.c   ****     // 6. SMIA Serializer Disable
1175:../AR0330.c   ****     //
1176:../AR0330.c   ****     SensorRead2B(SENSOR_ADDR_RD, 0x30, 0x1A, buf);
1177:../AR0330.c   ****     buf[1] = buf[1] | 0x10;
1178:../AR0330.c   ****     SensorWrite2B(SENSOR_ADDR_WR, 0x30, 0x1A, buf[1], buf[0]);
1179:../AR0330.c   **** 
1180:../AR0330.c   ****     //
1181:../AR0330.c   ****     // 7. Disable Embedded Data
1182:../AR0330.c   ****     //
1183:../AR0330.c   ****     SensorRead2B(SENSOR_ADDR_RD, 0x30, 0x64, buf);
1184:../AR0330.c   ****     buf[1] = buf[1] | 0x01;
1185:../AR0330.c   ****     SensorWrite2B(SENSOR_ADDR_WR, 0x30, 0x64, buf[1], buf[0]);
1186:../AR0330.c   **** 
1187:../AR0330.c   ****     //
1188:../AR0330.c   ****     // Load default registers
1189:../AR0330.c   ****     //
1190:../AR0330.c   **** 
1191:../AR0330.c   ****     // Set test_pattern GreenB to "1" to indicate that the default register macro has been run
1192:../AR0330.c   ****     // All mode macros will test for "1" in 0x3078.
1193:../AR0330.c   ****     // Default initialization sequence will be run if 0x3078 does equals "0".
1194:../AR0330.c   **** 
1195:../AR0330.c   ****     SensorWrite2B(SENSOR_ADDR_WR, 0x30, 0x78, 0x00, 0x01);  //Marker to say that 'Defaults' have be
1196:../AR0330.c   **** 
1197:../AR0330.c   ****     //Check OTPM Version.  If R0x3072 is "8" or greater, then do not write default register changes
1198:../AR0330.c   ****     //Only OTPM V5 part do not need write default register changes.
1199:../AR0330.c   **** 
1200:../AR0330.c   ****     SensorRead2B(SENSOR_ADDR_RD, 0x30, 0x64, buf);
1201:../AR0330.c   ****     regdata16 = (buf[1] << 8) + buf[0];
1202:../AR0330.c   ****     CyU3PDebugPrint (4, "\rCamera_API : OTPM version 0x%x \r\n", regdata16);
1203:../AR0330.c   **** 
1204:../AR0330.c   ****     if(regdata16 < 0x08)
1205:../AR0330.c   ****     {
1206:../AR0330.c   ****         //
1207:../AR0330.c   ****     	// Default Register Changes - OTPM V2
1208:../AR0330.c   ****     	//
1209:../AR0330.c   ****     	CyU3PDebugPrint (4, "\rCamera_API : Start default register changes - OTPM V2 \r\n");
1210:../AR0330.c   ****         SensorWrite2B(SENSOR_ADDR_WR, 0x30, 0xBA, 0x00, 0x2C);
1211:../AR0330.c   **** 
1212:../AR0330.c   ****         SensorWrite2B(SENSOR_ADDR_WR, 0x30, 0xFE, 0x00, 0x80);
1213:../AR0330.c   **** 
1214:../AR0330.c   ****         SensorWrite2B(SENSOR_ADDR_WR, 0x30, 0xE0, 0x00, 0x03);     // changed form 0x0000 to 0x0000
1215:../AR0330.c   **** 
1216:../AR0330.c   ****         SensorRead2B(SENSOR_ADDR_RD, 0x3E, 0xCE, buf);
1217:../AR0330.c   ****         SensorWrite2B(SENSOR_ADDR_WR, 0x30, 0xE0, buf[1], 0xFF);   // RESERVED - Do not write to MA
1218:../AR0330.c   **** 
1219:../AR0330.c   ****         SensorWrite2B(SENSOR_ADDR_WR, 0x3E, 0xD0, 0xE4, 0xF6);
1220:../AR0330.c   **** 
1221:../AR0330.c   ****         SensorWrite2B(SENSOR_ADDR_WR, 0x3E, 0xD2, 0x01, 0x46);     //0x0146 Back to defualt due to 
1222:../AR0330.c   **** 
1223:../AR0330.c   ****         SensorWrite2B(SENSOR_ADDR_WR, 0x3E, 0xD4, 0x8F, 0x6C);
1224:../AR0330.c   **** 
1225:../AR0330.c   ****         SensorWrite2B(SENSOR_ADDR_WR, 0x3E, 0xD6, 0x66, 0xCC);     // 0x6666
1226:../AR0330.c   **** 
1227:../AR0330.c   ****         SensorWrite2B(SENSOR_ADDR_WR, 0x3E, 0xD8, 0x8C, 0x42);     // 0x8642
1228:../AR0330.c   **** 
1229:../AR0330.c   ****         SensorWrite2B(SENSOR_ADDR_WR, 0x3E, 0xDA, 0x88, 0x9B);
1230:../AR0330.c   **** 
1231:../AR0330.c   ****         SensorWrite2B(SENSOR_ADDR_WR, 0x3E, 0xDC, 0x88, 0x63);
1232:../AR0330.c   **** 
1233:../AR0330.c   ****         SensorWrite2B(SENSOR_ADDR_WR, 0x3E, 0xDE, 0xAA, 0x04);
1234:../AR0330.c   **** 
1235:../AR0330.c   ****         SensorWrite2B(SENSOR_ADDR_WR, 0x3E, 0xE0, 0x15, 0xF0);
1236:../AR0330.c   **** 
1237:../AR0330.c   ****         SensorWrite2B(SENSOR_ADDR_WR, 0x3E, 0xE6, 0x00, 0x8C);
1238:../AR0330.c   **** 
1239:../AR0330.c   ****         SensorWrite2B(SENSOR_ADDR_WR, 0x3E, 0xE8, 0x20, 0x24);
1240:../AR0330.c   **** 
1241:../AR0330.c   ****         SensorWrite2B(SENSOR_ADDR_WR, 0x3E, 0xEA, 0xFF, 0x1F);
1242:../AR0330.c   **** 
1243:../AR0330.c   ****         SensorWrite2B(SENSOR_ADDR_WR, 0x3F, 0x06, 0x04, 0x6A);
1244:../AR0330.c   **** 
1245:../AR0330.c   ****         //
1246:../AR0330.c   ****         //  Below updates will fix eclipse issue.
1247:../AR0330.c   ****         //  For Again of 1x, 2x, 4x, and 8x, it needs Dgain of 1.04x (Dgain register REG0x305E set 
1248:../AR0330.c   ****         //  1.06x (0x0088), 1.14x (0x0092) and 1.25x (0x00A0) respectively. This INI only provide m
1249:../AR0330.c   ****         //
1250:../AR0330.c   ****         SensorWrite2B(SENSOR_ADDR_WR, 0x3E, 0xDA, 0x88, 0xBC);
1251:../AR0330.c   **** 
1252:../AR0330.c   ****         SensorWrite2B(SENSOR_ADDR_WR, 0x3E, 0xDC, 0xAA, 0x63);
1253:../AR0330.c   **** 
1254:../AR0330.c   ****         SensorWrite2B(SENSOR_ADDR_WR, 0x30, 0x5E, 0x00, 0xA0);
1255:../AR0330.c   ****     }
1256:../AR0330.c   **** #endif
1257:../AR0330.c   **** 
1258:../AR0330.c   ****     return;
 1803              		.loc 1 1258 0
 1804 0138 0000A0E1 		mov	r0, r0	@ nop
1259:../AR0330.c   **** }
 1805              		.loc 1 1259 0
 1806 013c 04D04BE2 		sub	sp, fp, #4
 1807              		@ sp needed
 1808 0140 0088BDE8 		ldmfd	sp!, {fp, pc}
 1809              	.L81:
 1810              		.align	2
 1811              	.L80:
 1812 0144 1A300000 		.word	12314
 1813 0148 20020000 		.word	.LC14
 1814 014c E4010000 		.word	.LC13
 1815 0150 0E300000 		.word	12302
 1816 0154 F0300000 		.word	12528
 1817 0158 72300000 		.word	12402
 1818 015c 00000000 		.word	AR0330_SetOtherRegs
 1819 0160 00000000 		.word	AR0330_OTPMVsettingsV5
 1820              		.cfi_endproc
 1821              	.LFE13:
 1823              		.section	.rodata
 1824              		.align	2
 1825              	.LC15:
 1826 0244 0D43414D 		.ascii	"\015CAMERA_VGA_config ============= \015\012\000"
 1826      4552415F 
 1826      5647415F 
 1826      636F6E66 
 1826      6967203D 
 1827              		.section	.text.CAMERA_VGA_config,"ax",%progbits
 1828              		.align	2
 1829              		.global	CAMERA_VGA_config
 1831              	CAMERA_VGA_config:
 1832              	.LFB14:
1260:../AR0330.c   **** 
1261:../AR0330.c   **** 
1262:../AR0330.c   **** 
1263:../AR0330.c   **** //
1264:../AR0330.c   **** // FUNCTION NAME.
1265:../AR0330.c   **** //      CAMERA_VGA_config
1266:../AR0330.c   **** //
1267:../AR0330.c   **** // FUNCTIONAL DESCRIPTION.
1268:../AR0330.c   **** //
1269:../AR0330.c   **** //
1270:../AR0330.c   **** // ENTRY PARAMETERS.
1271:../AR0330.c   **** //      void
1272:../AR0330.c   **** //
1273:../AR0330.c   **** // EXIT PARAMETERS.
1274:../AR0330.c   **** //      Function Return
1275:../AR0330.c   **** //
1276:../AR0330.c   **** void CAMERA_VGA_config(void)
1277:../AR0330.c   **** {
 1833              		.loc 1 1277 0
 1834              		.cfi_startproc
 1835              		@ args = 0, pretend = 0, frame = 0
 1836              		@ frame_needed = 1, uses_anonymous_args = 0
 1837 0000 00482DE9 		stmfd	sp!, {fp, lr}
 1838              	.LCFI28:
 1839              		.cfi_def_cfa_offset 8
 1840              		.cfi_offset 11, -8
 1841              		.cfi_offset 14, -4
 1842 0004 04B08DE2 		add	fp, sp, #4
 1843              	.LCFI29:
 1844              		.cfi_def_cfa 11, 4
1278:../AR0330.c   ****     CyU3PDebugPrint (4, "\rCAMERA_VGA_config ============= \r\n");
 1845              		.loc 1 1278 0
 1846 0008 0400A0E3 		mov	r0, #4
 1847 000c 08109FE5 		ldr	r1, .L84
 1848 0010 FEFFFFEB 		bl	CyU3PDebugPrint
1279:../AR0330.c   **** 
1280:../AR0330.c   **** 
1281:../AR0330.c   **** 
1282:../AR0330.c   **** 
1283:../AR0330.c   ****     return;
 1849              		.loc 1 1283 0
 1850 0014 0000A0E1 		mov	r0, r0	@ nop
1284:../AR0330.c   **** }
 1851              		.loc 1 1284 0
 1852 0018 0088BDE8 		ldmfd	sp!, {fp, pc}
 1853              	.L85:
 1854              		.align	2
 1855              	.L84:
 1856 001c 44020000 		.word	.LC15
 1857              		.cfi_endproc
 1858              	.LFE14:
 1860              		.section	.rodata
 1861              		.align	2
 1862              	.LC16:
 1863 0268 0D43414D 		.ascii	"\015CAMERA_VGA_HS_config ============= \015\012\000"
 1863      4552415F 
 1863      5647415F 
 1863      48535F63 
 1863      6F6E6669 
 1864              		.section	.text.CAMERA_VGA_HS_config,"ax",%progbits
 1865              		.align	2
 1866              		.global	CAMERA_VGA_HS_config
 1868              	CAMERA_VGA_HS_config:
 1869              	.LFB15:
1285:../AR0330.c   **** 
1286:../AR0330.c   **** 
1287:../AR0330.c   **** //
1288:../AR0330.c   **** // FUNCTION NAME.
1289:../AR0330.c   **** //      CAMERA_VGA_HS_config
1290:../AR0330.c   **** //
1291:../AR0330.c   **** // FUNCTIONAL DESCRIPTION.
1292:../AR0330.c   **** //
1293:../AR0330.c   **** //
1294:../AR0330.c   **** // ENTRY PARAMETERS.
1295:../AR0330.c   **** //      void
1296:../AR0330.c   **** //
1297:../AR0330.c   **** // EXIT PARAMETERS.
1298:../AR0330.c   **** //      Function Return
1299:../AR0330.c   **** //
1300:../AR0330.c   **** void CAMERA_VGA_HS_config(void)
1301:../AR0330.c   **** {
 1870              		.loc 1 1301 0
 1871              		.cfi_startproc
 1872              		@ args = 0, pretend = 0, frame = 8
 1873              		@ frame_needed = 1, uses_anonymous_args = 0
 1874 0000 00482DE9 		stmfd	sp!, {fp, lr}
 1875              	.LCFI30:
 1876              		.cfi_def_cfa_offset 8
 1877              		.cfi_offset 11, -8
 1878              		.cfi_offset 14, -4
 1879 0004 04B08DE2 		add	fp, sp, #4
 1880              	.LCFI31:
 1881              		.cfi_def_cfa 11, 4
 1882 0008 08D04DE2 		sub	sp, sp, #8
1302:../AR0330.c   ****     uint16_t tempdata;
1303:../AR0330.c   ****     uint16_t tempaddr;
1304:../AR0330.c   **** 
1305:../AR0330.c   **** //    tempaddr = 0x3070;
1306:../AR0330.c   **** //    tempdata = 0x0003;
1307:../AR0330.c   **** //    sensor_write(tempaddr, tempdata);
1308:../AR0330.c   **** 
1309:../AR0330.c   ****     CyU3PDebugPrint (4, "\rCAMERA_VGA_HS_config ============= \r\n");
 1883              		.loc 1 1309 0
 1884 000c 0400A0E3 		mov	r0, #4
 1885 0010 34109FE5 		ldr	r1, .L88
 1886 0014 FEFFFFEB 		bl	CyU3PDebugPrint
1310:../AR0330.c   **** //    sensor_write_array(sensor_vga_regs, 16);
1311:../AR0330.c   **** 
1312:../AR0330.c   **** 
1313:../AR0330.c   ****     tempaddr = 0x301A;
 1887              		.loc 1 1313 0
 1888 0018 30309FE5 		ldr	r3, .L88+4
 1889 001c B6304BE1 		strh	r3, [fp, #-6]	@ movhi
1314:../AR0330.c   **** //    tempdata = 0x105C;
1315:../AR0330.c   ****     tempdata = 0x005C;
 1890              		.loc 1 1315 0
 1891 0020 5C30A0E3 		mov	r3, #92
 1892 0024 B8304BE1 		strh	r3, [fp, #-8]	@ movhi
1316:../AR0330.c   **** //    tempdata = 0x001C;
1317:../AR0330.c   **** //    tempaddr = 0x301C;
1318:../AR0330.c   **** //    tempdata = 0x0001;
1319:../AR0330.c   **** 
1320:../AR0330.c   ****     sensor_write(tempaddr, tempdata);
 1893              		.loc 1 1320 0
 1894 0028 B6205BE1 		ldrh	r2, [fp, #-6]
 1895 002c B8305BE1 		ldrh	r3, [fp, #-8]
 1896 0030 0200A0E1 		mov	r0, r2
 1897 0034 0310A0E1 		mov	r1, r3
 1898 0038 FEFFFFEB 		bl	sensor_write
1321:../AR0330.c   **** 
1322:../AR0330.c   **** 
1323:../AR0330.c   **** //    tempaddr = 0x3048;
1324:../AR0330.c   **** //    sensor_read(tempaddr, &tempdata);
1325:../AR0330.c   **** //    CyU3PDebugPrint (4, "\rCAMERA_Base_Config : read address = 0x%x data = 0x%x \r\n",tempaddr,te
1326:../AR0330.c   **** 
1327:../AR0330.c   ****     CAMERA_Debug();
 1899              		.loc 1 1327 0
 1900 003c FEFFFFEB 		bl	CAMERA_Debug
1328:../AR0330.c   **** 
1329:../AR0330.c   ****     return;
 1901              		.loc 1 1329 0
 1902 0040 0000A0E1 		mov	r0, r0	@ nop
1330:../AR0330.c   **** }
 1903              		.loc 1 1330 0
 1904 0044 04D04BE2 		sub	sp, fp, #4
 1905              		@ sp needed
 1906 0048 0088BDE8 		ldmfd	sp!, {fp, pc}
 1907              	.L89:
 1908              		.align	2
 1909              	.L88:
 1910 004c 68020000 		.word	.LC16
 1911 0050 1A300000 		.word	12314
 1912              		.cfi_endproc
 1913              	.LFE15:
 1915              		.section	.rodata
 1916 028f 00       		.align	2
 1917              	.LC17:
 1918 0290 0D43414D 		.ascii	"\015CAMERA_720P_config ============= \015\012\000"
 1918      4552415F 
 1918      37323050 
 1918      5F636F6E 
 1918      66696720 
 1919              		.section	.text.CAMERA_720P_config,"ax",%progbits
 1920              		.align	2
 1921              		.global	CAMERA_720P_config
 1923              	CAMERA_720P_config:
 1924              	.LFB16:
1331:../AR0330.c   **** 
1332:../AR0330.c   **** 
1333:../AR0330.c   **** //
1334:../AR0330.c   **** // FUNCTION NAME.
1335:../AR0330.c   **** //      CAMERA_720P_config
1336:../AR0330.c   **** //
1337:../AR0330.c   **** // FUNCTIONAL DESCRIPTION.
1338:../AR0330.c   **** //
1339:../AR0330.c   **** //
1340:../AR0330.c   **** // ENTRY PARAMETERS.
1341:../AR0330.c   **** //      void
1342:../AR0330.c   **** //
1343:../AR0330.c   **** // EXIT PARAMETERS.
1344:../AR0330.c   **** //      Function Return
1345:../AR0330.c   **** //
1346:../AR0330.c   **** void CAMERA_720P_config(void)
1347:../AR0330.c   **** {
 1925              		.loc 1 1347 0
 1926              		.cfi_startproc
 1927              		@ args = 0, pretend = 0, frame = 0
 1928              		@ frame_needed = 1, uses_anonymous_args = 0
 1929 0000 00482DE9 		stmfd	sp!, {fp, lr}
 1930              	.LCFI32:
 1931              		.cfi_def_cfa_offset 8
 1932              		.cfi_offset 11, -8
 1933              		.cfi_offset 14, -4
 1934 0004 04B08DE2 		add	fp, sp, #4
 1935              	.LCFI33:
 1936              		.cfi_def_cfa 11, 4
1348:../AR0330.c   ****     CyU3PDebugPrint (4, "\rCAMERA_720P_config ============= \r\n");
 1937              		.loc 1 1348 0
 1938 0008 0400A0E3 		mov	r0, #4
 1939 000c 14109FE5 		ldr	r1, .L92
 1940 0010 FEFFFFEB 		bl	CyU3PDebugPrint
1349:../AR0330.c   ****     sensor_write_array(sensor_720p_regs, 18);
 1941              		.loc 1 1349 0
 1942 0014 10009FE5 		ldr	r0, .L92+4
 1943 0018 1210A0E3 		mov	r1, #18
 1944 001c FEFFFFEB 		bl	sensor_write_array
1350:../AR0330.c   **** 
1351:../AR0330.c   **** 
1352:../AR0330.c   ****     return;
 1945              		.loc 1 1352 0
 1946 0020 0000A0E1 		mov	r0, r0	@ nop
1353:../AR0330.c   **** }
 1947              		.loc 1 1353 0
 1948 0024 0088BDE8 		ldmfd	sp!, {fp, pc}
 1949              	.L93:
 1950              		.align	2
 1951              	.L92:
 1952 0028 90020000 		.word	.LC17
 1953 002c 00000000 		.word	sensor_720p_regs
 1954              		.cfi_endproc
 1955              	.LFE16:
 1957              		.section	.rodata
 1958 02b5 000000   		.align	2
 1959              	.LC18:
 1960 02b8 0D43414D 		.ascii	"\015CAMERA_1080P_config ============= \015\012\000"
 1960      4552415F 
 1960      31303830 
 1960      505F636F 
 1960      6E666967 
 1961              		.section	.text.CAMERA_1080P_config,"ax",%progbits
 1962              		.align	2
 1963              		.global	CAMERA_1080P_config
 1965              	CAMERA_1080P_config:
 1966              	.LFB17:
1354:../AR0330.c   **** 
1355:../AR0330.c   **** //
1356:../AR0330.c   **** // FUNCTION NAME.
1357:../AR0330.c   **** //      CAMERA_1080P_config
1358:../AR0330.c   **** //
1359:../AR0330.c   **** // FUNCTIONAL DESCRIPTION.
1360:../AR0330.c   **** //
1361:../AR0330.c   **** //
1362:../AR0330.c   **** // ENTRY PARAMETERS.
1363:../AR0330.c   **** //      void
1364:../AR0330.c   **** //
1365:../AR0330.c   **** // EXIT PARAMETERS.
1366:../AR0330.c   **** //      Function Return
1367:../AR0330.c   **** //
1368:../AR0330.c   **** void CAMERA_1080P_config(void)
1369:../AR0330.c   **** {
 1967              		.loc 1 1369 0
 1968              		.cfi_startproc
 1969              		@ args = 0, pretend = 0, frame = 0
 1970              		@ frame_needed = 1, uses_anonymous_args = 0
 1971 0000 00482DE9 		stmfd	sp!, {fp, lr}
 1972              	.LCFI34:
 1973              		.cfi_def_cfa_offset 8
 1974              		.cfi_offset 11, -8
 1975              		.cfi_offset 14, -4
 1976 0004 04B08DE2 		add	fp, sp, #4
 1977              	.LCFI35:
 1978              		.cfi_def_cfa 11, 4
1370:../AR0330.c   ****     CyU3PDebugPrint (4, "\rCAMERA_1080P_config ============= \r\n");
 1979              		.loc 1 1370 0
 1980 0008 0400A0E3 		mov	r0, #4
 1981 000c 14109FE5 		ldr	r1, .L96
 1982 0010 FEFFFFEB 		bl	CyU3PDebugPrint
1371:../AR0330.c   **** 
1372:../AR0330.c   ****     sensor_write_array(sensor_1080p_regs, 16);
 1983              		.loc 1 1372 0
 1984 0014 10009FE5 		ldr	r0, .L96+4
 1985 0018 1010A0E3 		mov	r1, #16
 1986 001c FEFFFFEB 		bl	sensor_write_array
1373:../AR0330.c   **** 
1374:../AR0330.c   ****     return;
 1987              		.loc 1 1374 0
 1988 0020 0000A0E1 		mov	r0, r0	@ nop
1375:../AR0330.c   **** }
 1989              		.loc 1 1375 0
 1990 0024 0088BDE8 		ldmfd	sp!, {fp, pc}
 1991              	.L97:
 1992              		.align	2
 1993              	.L96:
 1994 0028 B8020000 		.word	.LC18
 1995 002c 00000000 		.word	sensor_1080p_regs
 1996              		.cfi_endproc
 1997              	.LFE17:
 1999              		.section	.rodata
 2000 02de 0000     		.align	2
 2001              	.LC19:
 2002 02e0 0D43414D 		.ascii	"\015CAMERA_5MP_config ============= \015\012\000"
 2002      4552415F 
 2002      354D505F 
 2002      636F6E66 
 2002      6967203D 
 2003              		.section	.text.CAMERA_5MP_config,"ax",%progbits
 2004              		.align	2
 2005              		.global	CAMERA_5MP_config
 2007              	CAMERA_5MP_config:
 2008              	.LFB18:
1376:../AR0330.c   **** 
1377:../AR0330.c   **** //
1378:../AR0330.c   **** // FUNCTION NAME.
1379:../AR0330.c   **** //      CAMERA_5MP_config
1380:../AR0330.c   **** //
1381:../AR0330.c   **** // FUNCTIONAL DESCRIPTION.
1382:../AR0330.c   **** //
1383:../AR0330.c   **** //
1384:../AR0330.c   **** // ENTRY PARAMETERS.
1385:../AR0330.c   **** //      void
1386:../AR0330.c   **** //
1387:../AR0330.c   **** // EXIT PARAMETERS.
1388:../AR0330.c   **** //      Function Return
1389:../AR0330.c   **** //
1390:../AR0330.c   **** void CAMERA_5MP_config(void)
1391:../AR0330.c   **** {
 2009              		.loc 1 1391 0
 2010              		.cfi_startproc
 2011              		@ args = 0, pretend = 0, frame = 0
 2012              		@ frame_needed = 1, uses_anonymous_args = 0
 2013 0000 00482DE9 		stmfd	sp!, {fp, lr}
 2014              	.LCFI36:
 2015              		.cfi_def_cfa_offset 8
 2016              		.cfi_offset 11, -8
 2017              		.cfi_offset 14, -4
 2018 0004 04B08DE2 		add	fp, sp, #4
 2019              	.LCFI37:
 2020              		.cfi_def_cfa 11, 4
1392:../AR0330.c   ****     CyU3PDebugPrint (4, "\rCAMERA_5MP_config ============= \r\n");
 2021              		.loc 1 1392 0
 2022 0008 0400A0E3 		mov	r0, #4
 2023 000c 08109FE5 		ldr	r1, .L100
 2024 0010 FEFFFFEB 		bl	CyU3PDebugPrint
1393:../AR0330.c   **** 
1394:../AR0330.c   ****     return;
 2025              		.loc 1 1394 0
 2026 0014 0000A0E1 		mov	r0, r0	@ nop
1395:../AR0330.c   **** }
 2027              		.loc 1 1395 0
 2028 0018 0088BDE8 		ldmfd	sp!, {fp, pc}
 2029              	.L101:
 2030              		.align	2
 2031              	.L100:
 2032 001c E0020000 		.word	.LC19
 2033              		.cfi_endproc
 2034              	.LFE18:
 2036              		.section	.rodata
 2037              		.align	2
 2038              	.LC20:
 2039 0304 0D43414D 		.ascii	"\015CAMERA_Power_Down ================ \015\012\000"
 2039      4552415F 
 2039      506F7765 
 2039      725F446F 
 2039      776E203D 
 2040              		.section	.text.CAMERA_Power_Down,"ax",%progbits
 2041              		.align	2
 2042              		.global	CAMERA_Power_Down
 2044              	CAMERA_Power_Down:
 2045              	.LFB19:
1396:../AR0330.c   **** 
1397:../AR0330.c   **** //
1398:../AR0330.c   **** // FUNCTION NAME.
1399:../AR0330.c   **** //      CAMERA_Power_Down
1400:../AR0330.c   **** //
1401:../AR0330.c   **** // FUNCTIONAL DESCRIPTION.
1402:../AR0330.c   **** //
1403:../AR0330.c   **** //
1404:../AR0330.c   **** // ENTRY PARAMETERS.
1405:../AR0330.c   **** //      void
1406:../AR0330.c   **** //
1407:../AR0330.c   **** // EXIT PARAMETERS.
1408:../AR0330.c   **** //      Function Return
1409:../AR0330.c   **** //
1410:../AR0330.c   **** 
1411:../AR0330.c   **** void CAMERA_Power_Down(void)
1412:../AR0330.c   **** {
 2046              		.loc 1 1412 0
 2047              		.cfi_startproc
 2048              		@ args = 0, pretend = 0, frame = 0
 2049              		@ frame_needed = 1, uses_anonymous_args = 0
 2050 0000 00482DE9 		stmfd	sp!, {fp, lr}
 2051              	.LCFI38:
 2052              		.cfi_def_cfa_offset 8
 2053              		.cfi_offset 11, -8
 2054              		.cfi_offset 14, -4
 2055 0004 04B08DE2 		add	fp, sp, #4
 2056              	.LCFI39:
 2057              		.cfi_def_cfa 11, 4
1413:../AR0330.c   ****     CyU3PDebugPrint (4, "\rCAMERA_Power_Down ================ \r\n");
 2058              		.loc 1 1413 0
 2059 0008 0400A0E3 		mov	r0, #4
 2060 000c 08109FE5 		ldr	r1, .L104
 2061 0010 FEFFFFEB 		bl	CyU3PDebugPrint
1414:../AR0330.c   **** 
1415:../AR0330.c   **** 
1416:../AR0330.c   ****     return;
 2062              		.loc 1 1416 0
 2063 0014 0000A0E1 		mov	r0, r0	@ nop
1417:../AR0330.c   **** }
 2064              		.loc 1 1417 0
 2065 0018 0088BDE8 		ldmfd	sp!, {fp, pc}
 2066              	.L105:
 2067              		.align	2
 2068              	.L104:
 2069 001c 04030000 		.word	.LC20
 2070              		.cfi_endproc
 2071              	.LFE19:
 2073              		.section	.rodata
 2074 032b 00       		.align	2
 2075              	.LC21:
 2076 032c 0D43414D 		.ascii	"\015CAMERA_Power_Up ============= \015\012\000"
 2076      4552415F 
 2076      506F7765 
 2076      725F5570 
 2076      203D3D3D 
 2077              		.section	.text.CAMERA_Power_Up,"ax",%progbits
 2078              		.align	2
 2079              		.global	CAMERA_Power_Up
 2081              	CAMERA_Power_Up:
 2082              	.LFB20:
1418:../AR0330.c   **** 
1419:../AR0330.c   **** 
1420:../AR0330.c   **** //
1421:../AR0330.c   **** // FUNCTION NAME.
1422:../AR0330.c   **** //      CAMERA_Power_Up
1423:../AR0330.c   **** //
1424:../AR0330.c   **** // FUNCTIONAL DESCRIPTION.
1425:../AR0330.c   **** //
1426:../AR0330.c   **** //
1427:../AR0330.c   **** // ENTRY PARAMETERS.
1428:../AR0330.c   **** //      void
1429:../AR0330.c   **** //
1430:../AR0330.c   **** // EXIT PARAMETERS.
1431:../AR0330.c   **** //      Function Return
1432:../AR0330.c   **** //
1433:../AR0330.c   **** void CAMERA_Power_Up(void)
1434:../AR0330.c   **** {
 2083              		.loc 1 1434 0
 2084              		.cfi_startproc
 2085              		@ args = 0, pretend = 0, frame = 0
 2086              		@ frame_needed = 1, uses_anonymous_args = 0
 2087 0000 00482DE9 		stmfd	sp!, {fp, lr}
 2088              	.LCFI40:
 2089              		.cfi_def_cfa_offset 8
 2090              		.cfi_offset 11, -8
 2091              		.cfi_offset 14, -4
 2092 0004 04B08DE2 		add	fp, sp, #4
 2093              	.LCFI41:
 2094              		.cfi_def_cfa 11, 4
1435:../AR0330.c   ****     CyU3PDebugPrint (4, "\rCAMERA_Power_Up ============= \r\n");
 2095              		.loc 1 1435 0
 2096 0008 0400A0E3 		mov	r0, #4
 2097 000c 08109FE5 		ldr	r1, .L108
 2098 0010 FEFFFFEB 		bl	CyU3PDebugPrint
1436:../AR0330.c   **** 
1437:../AR0330.c   **** 
1438:../AR0330.c   **** 
1439:../AR0330.c   **** 
1440:../AR0330.c   **** 
1441:../AR0330.c   ****     return;
 2099              		.loc 1 1441 0
 2100 0014 0000A0E1 		mov	r0, r0	@ nop
1442:../AR0330.c   **** }
 2101              		.loc 1 1442 0
 2102 0018 0088BDE8 		ldmfd	sp!, {fp, pc}
 2103              	.L109:
 2104              		.align	2
 2105              	.L108:
 2106 001c 2C030000 		.word	.LC21
 2107              		.cfi_endproc
 2108              	.LFE20:
 2110              		.section	.rodata
 2111 034e 0000     		.align	2
 2112              	.LC22:
 2113 0350 0D43414D 		.ascii	"\015CAMERA_Auto_Focus_Config ================ \015\012"
 2113      4552415F 
 2113      4175746F 
 2113      5F466F63 
 2113      75735F43 
 2114 037d 00       		.ascii	"\000"
 2115              		.section	.text.CAMERA_Auto_Focus_Config,"ax",%progbits
 2116              		.align	2
 2117              		.global	CAMERA_Auto_Focus_Config
 2119              	CAMERA_Auto_Focus_Config:
 2120              	.LFB21:
1443:../AR0330.c   **** 
1444:../AR0330.c   **** //
1445:../AR0330.c   **** // FUNCTION NAME.
1446:../AR0330.c   **** //      CAMERA_Auto_Focus_Config
1447:../AR0330.c   **** //
1448:../AR0330.c   **** // FUNCTIONAL DESCRIPTION.
1449:../AR0330.c   **** //
1450:../AR0330.c   **** //
1451:../AR0330.c   **** // ENTRY PARAMETERS.
1452:../AR0330.c   **** //      void
1453:../AR0330.c   **** //
1454:../AR0330.c   **** // EXIT PARAMETERS.
1455:../AR0330.c   **** //      Function Return
1456:../AR0330.c   **** //
1457:../AR0330.c   **** void CAMERA_Auto_Focus_Config(void)
1458:../AR0330.c   **** {
 2121              		.loc 1 1458 0
 2122              		.cfi_startproc
 2123              		@ args = 0, pretend = 0, frame = 0
 2124              		@ frame_needed = 1, uses_anonymous_args = 0
 2125 0000 00482DE9 		stmfd	sp!, {fp, lr}
 2126              	.LCFI42:
 2127              		.cfi_def_cfa_offset 8
 2128              		.cfi_offset 11, -8
 2129              		.cfi_offset 14, -4
 2130 0004 04B08DE2 		add	fp, sp, #4
 2131              	.LCFI43:
 2132              		.cfi_def_cfa 11, 4
1459:../AR0330.c   **** 
1460:../AR0330.c   ****     CyU3PDebugPrint (4, "\rCAMERA_Auto_Focus_Config ================ \r\n");
 2133              		.loc 1 1460 0
 2134 0008 0400A0E3 		mov	r0, #4
 2135 000c 08109FE5 		ldr	r1, .L112
 2136 0010 FEFFFFEB 		bl	CyU3PDebugPrint
1461:../AR0330.c   **** 
1462:../AR0330.c   **** 
1463:../AR0330.c   **** 
1464:../AR0330.c   ****     return;
 2137              		.loc 1 1464 0
 2138 0014 0000A0E1 		mov	r0, r0	@ nop
1465:../AR0330.c   **** }
 2139              		.loc 1 1465 0
 2140 0018 0088BDE8 		ldmfd	sp!, {fp, pc}
 2141              	.L113:
 2142              		.align	2
 2143              	.L112:
 2144 001c 50030000 		.word	.LC22
 2145              		.cfi_endproc
 2146              	.LFE21:
 2148              		.section	.rodata
 2149 037e 0000     		.align	2
 2150              	.LC23:
 2151 0380 0D43414D 		.ascii	"\015CAMERA_SetBrightness ================ \015\012\000"
 2151      4552415F 
 2151      53657442 
 2151      72696768 
 2151      746E6573 
 2152              		.section	.text.CAMERA_SetBrightness,"ax",%progbits
 2153              		.align	2
 2154              		.global	CAMERA_SetBrightness
 2156              	CAMERA_SetBrightness:
 2157              	.LFB22:
1466:../AR0330.c   **** 
1467:../AR0330.c   **** 
1468:../AR0330.c   **** //
1469:../AR0330.c   **** // FUNCTION NAME.
1470:../AR0330.c   **** //      CAMERA_SetBrightness
1471:../AR0330.c   **** //
1472:../AR0330.c   **** // FUNCTIONAL DESCRIPTION.
1473:../AR0330.c   **** //
1474:../AR0330.c   **** //
1475:../AR0330.c   **** // ENTRY PARAMETERS.
1476:../AR0330.c   **** //      void
1477:../AR0330.c   **** //
1478:../AR0330.c   **** // EXIT PARAMETERS.
1479:../AR0330.c   **** //      Function Return
1480:../AR0330.c   **** //
1481:../AR0330.c   **** void    CAMERA_SetBrightness(int8_t Brightness)
1482:../AR0330.c   **** {
 2158              		.loc 1 1482 0
 2159              		.cfi_startproc
 2160              		@ args = 0, pretend = 0, frame = 8
 2161              		@ frame_needed = 1, uses_anonymous_args = 0
 2162 0000 00482DE9 		stmfd	sp!, {fp, lr}
 2163              	.LCFI44:
 2164              		.cfi_def_cfa_offset 8
 2165              		.cfi_offset 11, -8
 2166              		.cfi_offset 14, -4
 2167 0004 04B08DE2 		add	fp, sp, #4
 2168              	.LCFI45:
 2169              		.cfi_def_cfa 11, 4
 2170 0008 08D04DE2 		sub	sp, sp, #8
 2171 000c 0030A0E1 		mov	r3, r0
 2172 0010 05304BE5 		strb	r3, [fp, #-5]
1483:../AR0330.c   ****     CyU3PDebugPrint (4, "\rCAMERA_SetBrightness ================ \r\n");
 2173              		.loc 1 1483 0
 2174 0014 0400A0E3 		mov	r0, #4
 2175 0018 0C109FE5 		ldr	r1, .L116
 2176 001c FEFFFFEB 		bl	CyU3PDebugPrint
1484:../AR0330.c   **** 
1485:../AR0330.c   **** 
1486:../AR0330.c   **** 
1487:../AR0330.c   ****     return;
 2177              		.loc 1 1487 0
 2178 0020 0000A0E1 		mov	r0, r0	@ nop
1488:../AR0330.c   **** }
 2179              		.loc 1 1488 0
 2180 0024 04D04BE2 		sub	sp, fp, #4
 2181              		@ sp needed
 2182 0028 0088BDE8 		ldmfd	sp!, {fp, pc}
 2183              	.L117:
 2184              		.align	2
 2185              	.L116:
 2186 002c 80030000 		.word	.LC23
 2187              		.cfi_endproc
 2188              	.LFE22:
 2190              		.section	.rodata
 2191 03aa 0000     		.align	2
 2192              	.LC24:
 2193 03ac 0D43414D 		.ascii	"\015CAMERA_GetBrightness ================ \015\012\000"
 2193      4552415F 
 2193      47657442 
 2193      72696768 
 2193      746E6573 
 2194              		.section	.text.CAMERA_GetBrightness,"ax",%progbits
 2195              		.align	2
 2196              		.global	CAMERA_GetBrightness
 2198              	CAMERA_GetBrightness:
 2199              	.LFB23:
1489:../AR0330.c   **** 
1490:../AR0330.c   **** //
1491:../AR0330.c   **** // FUNCTION NAME.
1492:../AR0330.c   **** //      CAMERA_GetBrightness
1493:../AR0330.c   **** //
1494:../AR0330.c   **** // FUNCTIONAL DESCRIPTION.
1495:../AR0330.c   **** //
1496:../AR0330.c   **** //
1497:../AR0330.c   **** // ENTRY PARAMETERS.
1498:../AR0330.c   **** //      void
1499:../AR0330.c   **** //
1500:../AR0330.c   **** // EXIT PARAMETERS.
1501:../AR0330.c   **** //      Function Return
1502:../AR0330.c   **** //
1503:../AR0330.c   **** int8_t  CAMERA_GetBrightness(uint8_t option)
1504:../AR0330.c   **** {
 2200              		.loc 1 1504 0
 2201              		.cfi_startproc
 2202              		@ args = 0, pretend = 0, frame = 8
 2203              		@ frame_needed = 1, uses_anonymous_args = 0
 2204 0000 00482DE9 		stmfd	sp!, {fp, lr}
 2205              	.LCFI46:
 2206              		.cfi_def_cfa_offset 8
 2207              		.cfi_offset 11, -8
 2208              		.cfi_offset 14, -4
 2209 0004 04B08DE2 		add	fp, sp, #4
 2210              	.LCFI47:
 2211              		.cfi_def_cfa 11, 4
 2212 0008 08D04DE2 		sub	sp, sp, #8
 2213 000c 0030A0E1 		mov	r3, r0
 2214 0010 05304BE5 		strb	r3, [fp, #-5]
1505:../AR0330.c   ****     CyU3PDebugPrint (4, "\rCAMERA_GetBrightness ================ \r\n");
 2215              		.loc 1 1505 0
 2216 0014 0400A0E3 		mov	r0, #4
 2217 0018 18109FE5 		ldr	r1, .L120
 2218 001c FEFFFFEB 		bl	CyU3PDebugPrint
1506:../AR0330.c   **** 
1507:../AR0330.c   ****     return 0;
 2219              		.loc 1 1507 0
 2220 0020 0030A0E3 		mov	r3, #0
 2221 0024 033CA0E1 		mov	r3, r3, asl #24
 2222 0028 433CA0E1 		mov	r3, r3, asr #24
1508:../AR0330.c   **** }
 2223              		.loc 1 1508 0
 2224 002c 0300A0E1 		mov	r0, r3
 2225 0030 04D04BE2 		sub	sp, fp, #4
 2226              		@ sp needed
 2227 0034 0088BDE8 		ldmfd	sp!, {fp, pc}
 2228              	.L121:
 2229              		.align	2
 2230              	.L120:
 2231 0038 AC030000 		.word	.LC24
 2232              		.cfi_endproc
 2233              	.LFE23:
 2235              		.section	.rodata
 2236 03d6 0000     		.align	2
 2237              	.LC25:
 2238 03d8 0D43414D 		.ascii	"\015CAMERA_SetContrast ================ \015\012\000"
 2238      4552415F 
 2238      53657443 
 2238      6F6E7472 
 2238      61737420 
 2239              		.section	.text.CAMERA_SetContrast,"ax",%progbits
 2240              		.align	2
 2241              		.global	CAMERA_SetContrast
 2243              	CAMERA_SetContrast:
 2244              	.LFB24:
1509:../AR0330.c   **** 
1510:../AR0330.c   **** //
1511:../AR0330.c   **** // FUNCTION NAME.
1512:../AR0330.c   **** //      CAMERA_SetContrast
1513:../AR0330.c   **** //
1514:../AR0330.c   **** // FUNCTIONAL DESCRIPTION.
1515:../AR0330.c   **** //
1516:../AR0330.c   **** //
1517:../AR0330.c   **** // ENTRY PARAMETERS.
1518:../AR0330.c   **** //      void
1519:../AR0330.c   **** //
1520:../AR0330.c   **** // EXIT PARAMETERS.
1521:../AR0330.c   **** //      Function Return
1522:../AR0330.c   **** //
1523:../AR0330.c   **** void    CAMERA_SetContrast(int8_t Contrast)
1524:../AR0330.c   **** {
 2245              		.loc 1 1524 0
 2246              		.cfi_startproc
 2247              		@ args = 0, pretend = 0, frame = 8
 2248              		@ frame_needed = 1, uses_anonymous_args = 0
 2249 0000 00482DE9 		stmfd	sp!, {fp, lr}
 2250              	.LCFI48:
 2251              		.cfi_def_cfa_offset 8
 2252              		.cfi_offset 11, -8
 2253              		.cfi_offset 14, -4
 2254 0004 04B08DE2 		add	fp, sp, #4
 2255              	.LCFI49:
 2256              		.cfi_def_cfa 11, 4
 2257 0008 08D04DE2 		sub	sp, sp, #8
 2258 000c 0030A0E1 		mov	r3, r0
 2259 0010 05304BE5 		strb	r3, [fp, #-5]
1525:../AR0330.c   ****     CyU3PDebugPrint (4, "\rCAMERA_SetContrast ================ \r\n");
 2260              		.loc 1 1525 0
 2261 0014 0400A0E3 		mov	r0, #4
 2262 0018 0C109FE5 		ldr	r1, .L124
 2263 001c FEFFFFEB 		bl	CyU3PDebugPrint
1526:../AR0330.c   **** 
1527:../AR0330.c   **** 
1528:../AR0330.c   ****     return;
 2264              		.loc 1 1528 0
 2265 0020 0000A0E1 		mov	r0, r0	@ nop
1529:../AR0330.c   **** }
 2266              		.loc 1 1529 0
 2267 0024 04D04BE2 		sub	sp, fp, #4
 2268              		@ sp needed
 2269 0028 0088BDE8 		ldmfd	sp!, {fp, pc}
 2270              	.L125:
 2271              		.align	2
 2272              	.L124:
 2273 002c D8030000 		.word	.LC25
 2274              		.cfi_endproc
 2275              	.LFE24:
 2277              		.section	.rodata
 2278              		.align	2
 2279              	.LC26:
 2280 0400 0D43414D 		.ascii	"\015CAMERA_GetContrast ================ \015\012\000"
 2280      4552415F 
 2280      47657443 
 2280      6F6E7472 
 2280      61737420 
 2281              		.align	2
 2282              	.LC27:
 2283 0428 0D457272 		.ascii	"\015Error count %d \015\012\000"
 2283      6F722063 
 2283      6F756E74 
 2283      20256420 
 2283      0D0A00
 2284 043b 00       		.align	2
 2285              	.LC28:
 2286 043c 0D66726D 		.ascii	"\015frmErrCnt =  %d \015\012\000"
 2286      45727243 
 2286      6E74203D 
 2286      20202564 
 2286      200D0A00 
 2287              		.align	2
 2288              	.LC29:
 2289 0450 0D637263 		.ascii	"\015crcErrCnt =  %d \015\012\000"
 2289      45727243 
 2289      6E74203D 
 2289      20202564 
 2289      200D0A00 
 2290              		.align	2
 2291              	.LC30:
 2292 0464 0D6D646C 		.ascii	"\015mdlErrCnt =  %d \015\012\000"
 2292      45727243 
 2292      6E74203D 
 2292      20202564 
 2292      200D0A00 
 2293              		.align	2
 2294              	.LC31:
 2295 0478 0D63746C 		.ascii	"\015ctlErrCnt =  %d \015\012\000"
 2295      45727243 
 2295      6E74203D 
 2295      20202564 
 2295      200D0A00 
 2296              		.align	2
 2297              	.LC32:
 2298 048c 0D656964 		.ascii	"\015eidErrCnt =  %d \015\012\000"
 2298      45727243 
 2298      6E74203D 
 2298      20202564 
 2298      200D0A00 
 2299              		.align	2
 2300              	.LC33:
 2301 04a0 0D726563 		.ascii	"\015recrErrCnt =  %d \015\012\000"
 2301      72457272 
 2301      436E7420 
 2301      3D202025 
 2301      64200D0A 
 2302 04b5 000000   		.align	2
 2303              	.LC34:
 2304 04b8 0D756E72 		.ascii	"\015unrcErrCnt =  %d \015\012\000"
 2304      63457272 
 2304      436E7420 
 2304      3D202025 
 2304      64200D0A 
 2305 04cd 000000   		.align	2
 2306              	.LC35:
 2307 04d0 0D726563 		.ascii	"\015recSyncErrCnt =  %d \015\012\000"
 2307      53796E63 
 2307      45727243 
 2307      6E74203D 
 2307      20202564 
 2308              		.align	2
 2309              	.LC36:
 2310 04e8 0D756E72 		.ascii	"\015unrSyncErrCnt =  %d \015\012\000"
 2310      53796E63 
 2310      45727243 
 2310      6E74203D 
 2310      20202564 
 2311              		.section	.text.CAMERA_GetContrast,"ax",%progbits
 2312              		.align	2
 2313              		.global	CAMERA_GetContrast
 2315              	CAMERA_GetContrast:
 2316              	.LFB25:
1530:../AR0330.c   **** 
1531:../AR0330.c   **** 
1532:../AR0330.c   **** 
1533:../AR0330.c   **** // FUNCTION NAME.
1534:../AR0330.c   **** //      CAMERA_GetContrast
1535:../AR0330.c   **** //
1536:../AR0330.c   **** // FUNCTIONAL DESCRIPTION.
1537:../AR0330.c   **** //
1538:../AR0330.c   **** //
1539:../AR0330.c   **** // ENTRY PARAMETERS.
1540:../AR0330.c   **** //      void
1541:../AR0330.c   **** //
1542:../AR0330.c   **** // EXIT PARAMETERS.
1543:../AR0330.c   **** //      Function Return
1544:../AR0330.c   **** //
1545:../AR0330.c   **** int8_t  CAMERA_GetContrast(int8_t option)
1546:../AR0330.c   **** {
 2317              		.loc 1 1546 0
 2318              		.cfi_startproc
 2319              		@ args = 0, pretend = 0, frame = 24
 2320              		@ frame_needed = 1, uses_anonymous_args = 0
 2321 0000 00482DE9 		stmfd	sp!, {fp, lr}
 2322              	.LCFI50:
 2323              		.cfi_def_cfa_offset 8
 2324              		.cfi_offset 11, -8
 2325              		.cfi_offset 14, -4
 2326 0004 04B08DE2 		add	fp, sp, #4
 2327              	.LCFI51:
 2328              		.cfi_def_cfa 11, 4
 2329 0008 18D04DE2 		sub	sp, sp, #24
 2330 000c 0030A0E1 		mov	r3, r0
 2331 0010 15304BE5 		strb	r3, [fp, #-21]
1547:../AR0330.c   **** 	CyBool_t clr_error_count;
1548:../AR0330.c   **** 	CyU3PMipicsiErrorCounts_t error_count;
1549:../AR0330.c   **** 
1550:../AR0330.c   ****     CyU3PDebugPrint (4, "\rCAMERA_GetContrast ================ \r\n");
 2332              		.loc 1 1550 0
 2333 0014 0400A0E3 		mov	r0, #4
 2334 0018 EC109FE5 		ldr	r1, .L128
 2335 001c FEFFFFEB 		bl	CyU3PDebugPrint
1551:../AR0330.c   **** 
1552:../AR0330.c   **** 
1553:../AR0330.c   ****     CyU3PMipicsiGetErrors(clr_error_count, &error_count);
 2336              		.loc 1 1553 0
 2337 0020 14304BE2 		sub	r3, fp, #20
 2338 0024 08001BE5 		ldr	r0, [fp, #-8]
 2339 0028 0310A0E1 		mov	r1, r3
 2340 002c FEFFFFEB 		bl	CyU3PMipicsiGetErrors
1554:../AR0330.c   ****     CyU3PDebugPrint (4, "\rError count %d \r\n", clr_error_count);
 2341              		.loc 1 1554 0
 2342 0030 0400A0E3 		mov	r0, #4
 2343 0034 D4109FE5 		ldr	r1, .L128+4
 2344 0038 08201BE5 		ldr	r2, [fp, #-8]
 2345 003c FEFFFFEB 		bl	CyU3PDebugPrint
1555:../AR0330.c   **** 
1556:../AR0330.c   ****     CyU3PDebugPrint (4, "\rfrmErrCnt =  %d \r\n", error_count.frmErrCnt);
 2346              		.loc 1 1556 0
 2347 0040 14305BE5 		ldrb	r3, [fp, #-20]	@ zero_extendqisi2
 2348 0044 0400A0E3 		mov	r0, #4
 2349 0048 C4109FE5 		ldr	r1, .L128+8
 2350 004c 0320A0E1 		mov	r2, r3
 2351 0050 FEFFFFEB 		bl	CyU3PDebugPrint
1557:../AR0330.c   ****     CyU3PDebugPrint (4, "\rcrcErrCnt =  %d \r\n", error_count.crcErrCnt);
 2352              		.loc 1 1557 0
 2353 0054 13305BE5 		ldrb	r3, [fp, #-19]	@ zero_extendqisi2
 2354 0058 0400A0E3 		mov	r0, #4
 2355 005c B4109FE5 		ldr	r1, .L128+12
 2356 0060 0320A0E1 		mov	r2, r3
 2357 0064 FEFFFFEB 		bl	CyU3PDebugPrint
1558:../AR0330.c   ****     CyU3PDebugPrint (4, "\rmdlErrCnt =  %d \r\n", error_count.mdlErrCnt);
 2358              		.loc 1 1558 0
 2359 0068 12305BE5 		ldrb	r3, [fp, #-18]	@ zero_extendqisi2
 2360 006c 0400A0E3 		mov	r0, #4
 2361 0070 A4109FE5 		ldr	r1, .L128+16
 2362 0074 0320A0E1 		mov	r2, r3
 2363 0078 FEFFFFEB 		bl	CyU3PDebugPrint
1559:../AR0330.c   ****     CyU3PDebugPrint (4, "\rctlErrCnt =  %d \r\n", error_count.ctlErrCnt);
 2364              		.loc 1 1559 0
 2365 007c 11305BE5 		ldrb	r3, [fp, #-17]	@ zero_extendqisi2
 2366 0080 0400A0E3 		mov	r0, #4
 2367 0084 94109FE5 		ldr	r1, .L128+20
 2368 0088 0320A0E1 		mov	r2, r3
 2369 008c FEFFFFEB 		bl	CyU3PDebugPrint
1560:../AR0330.c   **** 
1561:../AR0330.c   ****     CyU3PDebugPrint (4, "\reidErrCnt =  %d \r\n", error_count.eidErrCnt);
 2370              		.loc 1 1561 0
 2371 0090 10305BE5 		ldrb	r3, [fp, #-16]	@ zero_extendqisi2
 2372 0094 0400A0E3 		mov	r0, #4
 2373 0098 84109FE5 		ldr	r1, .L128+24
 2374 009c 0320A0E1 		mov	r2, r3
 2375 00a0 FEFFFFEB 		bl	CyU3PDebugPrint
1562:../AR0330.c   ****     CyU3PDebugPrint (4, "\rrecrErrCnt =  %d \r\n", error_count.recrErrCnt);
 2376              		.loc 1 1562 0
 2377 00a4 0F305BE5 		ldrb	r3, [fp, #-15]	@ zero_extendqisi2
 2378 00a8 0400A0E3 		mov	r0, #4
 2379 00ac 74109FE5 		ldr	r1, .L128+28
 2380 00b0 0320A0E1 		mov	r2, r3
 2381 00b4 FEFFFFEB 		bl	CyU3PDebugPrint
1563:../AR0330.c   ****     CyU3PDebugPrint (4, "\runrcErrCnt =  %d \r\n", error_count.unrcErrCnt);
 2382              		.loc 1 1563 0
 2383 00b8 0E305BE5 		ldrb	r3, [fp, #-14]	@ zero_extendqisi2
 2384 00bc 0400A0E3 		mov	r0, #4
 2385 00c0 64109FE5 		ldr	r1, .L128+32
 2386 00c4 0320A0E1 		mov	r2, r3
 2387 00c8 FEFFFFEB 		bl	CyU3PDebugPrint
1564:../AR0330.c   ****     CyU3PDebugPrint (4, "\rrecSyncErrCnt =  %d \r\n", error_count.recSyncErrCnt);
 2388              		.loc 1 1564 0
 2389 00cc 0D305BE5 		ldrb	r3, [fp, #-13]	@ zero_extendqisi2
 2390 00d0 0400A0E3 		mov	r0, #4
 2391 00d4 54109FE5 		ldr	r1, .L128+36
 2392 00d8 0320A0E1 		mov	r2, r3
 2393 00dc FEFFFFEB 		bl	CyU3PDebugPrint
1565:../AR0330.c   ****     CyU3PDebugPrint (4, "\runrSyncErrCnt =  %d \r\n", error_count.unrSyncErrCnt);
 2394              		.loc 1 1565 0
 2395 00e0 0C305BE5 		ldrb	r3, [fp, #-12]	@ zero_extendqisi2
 2396 00e4 0400A0E3 		mov	r0, #4
 2397 00e8 44109FE5 		ldr	r1, .L128+40
 2398 00ec 0320A0E1 		mov	r2, r3
 2399 00f0 FEFFFFEB 		bl	CyU3PDebugPrint
1566:../AR0330.c   **** 
1567:../AR0330.c   **** 
1568:../AR0330.c   ****     return 0;
 2400              		.loc 1 1568 0
 2401 00f4 0030A0E3 		mov	r3, #0
 2402 00f8 033CA0E1 		mov	r3, r3, asl #24
 2403 00fc 433CA0E1 		mov	r3, r3, asr #24
1569:../AR0330.c   **** }
 2404              		.loc 1 1569 0
 2405 0100 0300A0E1 		mov	r0, r3
 2406 0104 04D04BE2 		sub	sp, fp, #4
 2407              		@ sp needed
 2408 0108 0088BDE8 		ldmfd	sp!, {fp, pc}
 2409              	.L129:
 2410              		.align	2
 2411              	.L128:
 2412 010c 00040000 		.word	.LC26
 2413 0110 28040000 		.word	.LC27
 2414 0114 3C040000 		.word	.LC28
 2415 0118 50040000 		.word	.LC29
 2416 011c 64040000 		.word	.LC30
 2417 0120 78040000 		.word	.LC31
 2418 0124 8C040000 		.word	.LC32
 2419 0128 A0040000 		.word	.LC33
 2420 012c B8040000 		.word	.LC34
 2421 0130 D0040000 		.word	.LC35
 2422 0134 E8040000 		.word	.LC36
 2423              		.cfi_endproc
 2424              	.LFE25:
 2426              		.section	.rodata
 2427              		.align	2
 2428              	.LC37:
 2429 0500 0D43414D 		.ascii	"\015CAMERA_SetHue ================ \015\012\000"
 2429      4552415F 
 2429      53657448 
 2429      7565203D 
 2429      3D3D3D3D 
 2430              		.section	.text.CAMERA_SetHue,"ax",%progbits
 2431              		.align	2
 2432              		.global	CAMERA_SetHue
 2434              	CAMERA_SetHue:
 2435              	.LFB26:
1570:../AR0330.c   **** 
1571:../AR0330.c   **** //
1572:../AR0330.c   **** // FUNCTION NAME.
1573:../AR0330.c   **** //      CAMERA_SetHue
1574:../AR0330.c   **** //
1575:../AR0330.c   **** // FUNCTIONAL DESCRIPTION.
1576:../AR0330.c   **** //
1577:../AR0330.c   **** //
1578:../AR0330.c   **** // ENTRY PARAMETERS.
1579:../AR0330.c   **** //      void
1580:../AR0330.c   **** //
1581:../AR0330.c   **** // EXIT PARAMETERS.
1582:../AR0330.c   **** //      Function Return
1583:../AR0330.c   **** //
1584:../AR0330.c   **** void    CAMERA_SetHue(int32_t Hue)
1585:../AR0330.c   **** {
 2436              		.loc 1 1585 0
 2437              		.cfi_startproc
 2438              		@ args = 0, pretend = 0, frame = 8
 2439              		@ frame_needed = 1, uses_anonymous_args = 0
 2440 0000 00482DE9 		stmfd	sp!, {fp, lr}
 2441              	.LCFI52:
 2442              		.cfi_def_cfa_offset 8
 2443              		.cfi_offset 11, -8
 2444              		.cfi_offset 14, -4
 2445 0004 04B08DE2 		add	fp, sp, #4
 2446              	.LCFI53:
 2447              		.cfi_def_cfa 11, 4
 2448 0008 08D04DE2 		sub	sp, sp, #8
 2449 000c 08000BE5 		str	r0, [fp, #-8]
1586:../AR0330.c   ****     CyU3PDebugPrint (4, "\rCAMERA_SetHue ================ \r\n");
 2450              		.loc 1 1586 0
 2451 0010 0400A0E3 		mov	r0, #4
 2452 0014 0C109FE5 		ldr	r1, .L132
 2453 0018 FEFFFFEB 		bl	CyU3PDebugPrint
1587:../AR0330.c   **** 
1588:../AR0330.c   **** 
1589:../AR0330.c   ****     return;
 2454              		.loc 1 1589 0
 2455 001c 0000A0E1 		mov	r0, r0	@ nop
1590:../AR0330.c   **** }
 2456              		.loc 1 1590 0
 2457 0020 04D04BE2 		sub	sp, fp, #4
 2458              		@ sp needed
 2459 0024 0088BDE8 		ldmfd	sp!, {fp, pc}
 2460              	.L133:
 2461              		.align	2
 2462              	.L132:
 2463 0028 00050000 		.word	.LC37
 2464              		.cfi_endproc
 2465              	.LFE26:
 2467              		.section	.text.CAMERA_GetHue,"ax",%progbits
 2468              		.align	2
 2469              		.global	CAMERA_GetHue
 2471              	CAMERA_GetHue:
 2472              	.LFB27:
1591:../AR0330.c   **** 
1592:../AR0330.c   **** //
1593:../AR0330.c   **** // FUNCTION NAME.
1594:../AR0330.c   **** //      CAMERA_GetHue
1595:../AR0330.c   **** //
1596:../AR0330.c   **** // FUNCTIONAL DESCRIPTION.
1597:../AR0330.c   **** //
1598:../AR0330.c   **** //
1599:../AR0330.c   **** // ENTRY PARAMETERS.
1600:../AR0330.c   **** //      void
1601:../AR0330.c   **** //
1602:../AR0330.c   **** // EXIT PARAMETERS.
1603:../AR0330.c   **** //      Function Return
1604:../AR0330.c   **** //
1605:../AR0330.c   **** int32_t CAMERA_GetHue(uint8_t option)
1606:../AR0330.c   **** {
 2473              		.loc 1 1606 0
 2474              		.cfi_startproc
 2475              		@ args = 0, pretend = 0, frame = 8
 2476              		@ frame_needed = 1, uses_anonymous_args = 0
 2477 0000 00482DE9 		stmfd	sp!, {fp, lr}
 2478              	.LCFI54:
 2479              		.cfi_def_cfa_offset 8
 2480              		.cfi_offset 11, -8
 2481              		.cfi_offset 14, -4
 2482 0004 04B08DE2 		add	fp, sp, #4
 2483              	.LCFI55:
 2484              		.cfi_def_cfa 11, 4
 2485 0008 08D04DE2 		sub	sp, sp, #8
 2486 000c 0030A0E1 		mov	r3, r0
 2487 0010 05304BE5 		strb	r3, [fp, #-5]
1607:../AR0330.c   ****     CyU3PDebugPrint (4, "\rCAMERA_SetHue ================ \r\n");
 2488              		.loc 1 1607 0
 2489 0014 0400A0E3 		mov	r0, #4
 2490 0018 10109FE5 		ldr	r1, .L136
 2491 001c FEFFFFEB 		bl	CyU3PDebugPrint
1608:../AR0330.c   **** 
1609:../AR0330.c   **** 
1610:../AR0330.c   ****     return 0;
 2492              		.loc 1 1610 0
 2493 0020 0030A0E3 		mov	r3, #0
1611:../AR0330.c   **** }
 2494              		.loc 1 1611 0
 2495 0024 0300A0E1 		mov	r0, r3
 2496 0028 04D04BE2 		sub	sp, fp, #4
 2497              		@ sp needed
 2498 002c 0088BDE8 		ldmfd	sp!, {fp, pc}
 2499              	.L137:
 2500              		.align	2
 2501              	.L136:
 2502 0030 00050000 		.word	.LC37
 2503              		.cfi_endproc
 2504              	.LFE27:
 2506              		.section	.rodata
 2507 0523 00       		.align	2
 2508              	.LC38:
 2509 0524 0D43414D 		.ascii	"\015CAMERA_SetSaturation ================ \015\012\000"
 2509      4552415F 
 2509      53657453 
 2509      61747572 
 2509      6174696F 
 2510              		.section	.text.CAMERA_SetSaturation,"ax",%progbits
 2511              		.align	2
 2512              		.global	CAMERA_SetSaturation
 2514              	CAMERA_SetSaturation:
 2515              	.LFB28:
1612:../AR0330.c   **** 
1613:../AR0330.c   **** 
1614:../AR0330.c   **** //
1615:../AR0330.c   **** // FUNCTION NAME.
1616:../AR0330.c   **** //      CAMERA_SetSaturation
1617:../AR0330.c   **** //
1618:../AR0330.c   **** // FUNCTIONAL DESCRIPTION.
1619:../AR0330.c   **** //
1620:../AR0330.c   **** //
1621:../AR0330.c   **** // ENTRY PARAMETERS.
1622:../AR0330.c   **** //      void
1623:../AR0330.c   **** //
1624:../AR0330.c   **** // EXIT PARAMETERS.
1625:../AR0330.c   **** //      Function Return
1626:../AR0330.c   **** //
1627:../AR0330.c   **** void    CAMERA_SetSaturation(uint32_t Saturation)
1628:../AR0330.c   **** {
 2516              		.loc 1 1628 0
 2517              		.cfi_startproc
 2518              		@ args = 0, pretend = 0, frame = 8
 2519              		@ frame_needed = 1, uses_anonymous_args = 0
 2520 0000 00482DE9 		stmfd	sp!, {fp, lr}
 2521              	.LCFI56:
 2522              		.cfi_def_cfa_offset 8
 2523              		.cfi_offset 11, -8
 2524              		.cfi_offset 14, -4
 2525 0004 04B08DE2 		add	fp, sp, #4
 2526              	.LCFI57:
 2527              		.cfi_def_cfa 11, 4
 2528 0008 08D04DE2 		sub	sp, sp, #8
 2529 000c 08000BE5 		str	r0, [fp, #-8]
1629:../AR0330.c   ****     CyU3PDebugPrint (4, "\rCAMERA_SetSaturation ================ \r\n");
 2530              		.loc 1 1629 0
 2531 0010 0400A0E3 		mov	r0, #4
 2532 0014 0C109FE5 		ldr	r1, .L140
 2533 0018 FEFFFFEB 		bl	CyU3PDebugPrint
1630:../AR0330.c   **** 
1631:../AR0330.c   **** 
1632:../AR0330.c   ****     return;
 2534              		.loc 1 1632 0
 2535 001c 0000A0E1 		mov	r0, r0	@ nop
1633:../AR0330.c   **** }
 2536              		.loc 1 1633 0
 2537 0020 04D04BE2 		sub	sp, fp, #4
 2538              		@ sp needed
 2539 0024 0088BDE8 		ldmfd	sp!, {fp, pc}
 2540              	.L141:
 2541              		.align	2
 2542              	.L140:
 2543 0028 24050000 		.word	.LC38
 2544              		.cfi_endproc
 2545              	.LFE28:
 2547              		.section	.rodata
 2548 054e 0000     		.align	2
 2549              	.LC39:
 2550 0550 0D43414D 		.ascii	"\015CAMERA_GetSaturation ================ \015\012\000"
 2550      4552415F 
 2550      47657453 
 2550      61747572 
 2550      6174696F 
 2551              		.section	.text.CAMERA_GetSaturation,"ax",%progbits
 2552              		.align	2
 2553              		.global	CAMERA_GetSaturation
 2555              	CAMERA_GetSaturation:
 2556              	.LFB29:
1634:../AR0330.c   **** 
1635:../AR0330.c   **** //
1636:../AR0330.c   **** // FUNCTION NAME.
1637:../AR0330.c   **** //      CAMERA_GetSaturation
1638:../AR0330.c   **** //
1639:../AR0330.c   **** // FUNCTIONAL DESCRIPTION.
1640:../AR0330.c   **** //
1641:../AR0330.c   **** //
1642:../AR0330.c   **** // ENTRY PARAMETERS.
1643:../AR0330.c   **** //      void
1644:../AR0330.c   **** //
1645:../AR0330.c   **** // EXIT PARAMETERS.
1646:../AR0330.c   **** //      Function Return
1647:../AR0330.c   **** //
1648:../AR0330.c   **** int8_t  CAMERA_GetSaturation(uint8_t option)
1649:../AR0330.c   **** {
 2557              		.loc 1 1649 0
 2558              		.cfi_startproc
 2559              		@ args = 0, pretend = 0, frame = 8
 2560              		@ frame_needed = 1, uses_anonymous_args = 0
 2561 0000 00482DE9 		stmfd	sp!, {fp, lr}
 2562              	.LCFI58:
 2563              		.cfi_def_cfa_offset 8
 2564              		.cfi_offset 11, -8
 2565              		.cfi_offset 14, -4
 2566 0004 04B08DE2 		add	fp, sp, #4
 2567              	.LCFI59:
 2568              		.cfi_def_cfa 11, 4
 2569 0008 08D04DE2 		sub	sp, sp, #8
 2570 000c 0030A0E1 		mov	r3, r0
 2571 0010 05304BE5 		strb	r3, [fp, #-5]
1650:../AR0330.c   ****     CyU3PDebugPrint (4, "\rCAMERA_GetSaturation ================ \r\n");
 2572              		.loc 1 1650 0
 2573 0014 0400A0E3 		mov	r0, #4
 2574 0018 18109FE5 		ldr	r1, .L144
 2575 001c FEFFFFEB 		bl	CyU3PDebugPrint
1651:../AR0330.c   **** 
1652:../AR0330.c   **** 
1653:../AR0330.c   ****     return 0;
 2576              		.loc 1 1653 0
 2577 0020 0030A0E3 		mov	r3, #0
 2578 0024 033CA0E1 		mov	r3, r3, asl #24
 2579 0028 433CA0E1 		mov	r3, r3, asr #24
1654:../AR0330.c   **** }
 2580              		.loc 1 1654 0
 2581 002c 0300A0E1 		mov	r0, r3
 2582 0030 04D04BE2 		sub	sp, fp, #4
 2583              		@ sp needed
 2584 0034 0088BDE8 		ldmfd	sp!, {fp, pc}
 2585              	.L145:
 2586              		.align	2
 2587              	.L144:
 2588 0038 50050000 		.word	.LC39
 2589              		.cfi_endproc
 2590              	.LFE29:
 2592              		.section	.rodata
 2593 057a 0000     		.align	2
 2594              	.LC40:
 2595 057c 0D43414D 		.ascii	"\015CAMERA_SetSharpness ================ \015\012\000"
 2595      4552415F 
 2595      53657453 
 2595      68617270 
 2595      6E657373 
 2596              		.section	.text.CAMERA_SetSharpness,"ax",%progbits
 2597              		.align	2
 2598              		.global	CAMERA_SetSharpness
 2600              	CAMERA_SetSharpness:
 2601              	.LFB30:
1655:../AR0330.c   **** 
1656:../AR0330.c   **** 
1657:../AR0330.c   **** //
1658:../AR0330.c   **** // FUNCTION NAME.
1659:../AR0330.c   **** //      CAMERA_SetSharpness
1660:../AR0330.c   **** //
1661:../AR0330.c   **** // FUNCTIONAL DESCRIPTION.
1662:../AR0330.c   **** //
1663:../AR0330.c   **** //
1664:../AR0330.c   **** // ENTRY PARAMETERS.
1665:../AR0330.c   **** //      void
1666:../AR0330.c   **** //
1667:../AR0330.c   **** // EXIT PARAMETERS.
1668:../AR0330.c   **** //      Function Return
1669:../AR0330.c   **** //
1670:../AR0330.c   **** void    CAMERA_SetSharpness(uint8_t Sharp)
1671:../AR0330.c   **** {
 2602              		.loc 1 1671 0
 2603              		.cfi_startproc
 2604              		@ args = 0, pretend = 0, frame = 8
 2605              		@ frame_needed = 1, uses_anonymous_args = 0
 2606 0000 00482DE9 		stmfd	sp!, {fp, lr}
 2607              	.LCFI60:
 2608              		.cfi_def_cfa_offset 8
 2609              		.cfi_offset 11, -8
 2610              		.cfi_offset 14, -4
 2611 0004 04B08DE2 		add	fp, sp, #4
 2612              	.LCFI61:
 2613              		.cfi_def_cfa 11, 4
 2614 0008 08D04DE2 		sub	sp, sp, #8
 2615 000c 0030A0E1 		mov	r3, r0
 2616 0010 05304BE5 		strb	r3, [fp, #-5]
1672:../AR0330.c   ****     CyU3PDebugPrint (4, "\rCAMERA_SetSharpness ================ \r\n");
 2617              		.loc 1 1672 0
 2618 0014 0400A0E3 		mov	r0, #4
 2619 0018 0C109FE5 		ldr	r1, .L148
 2620 001c FEFFFFEB 		bl	CyU3PDebugPrint
1673:../AR0330.c   **** 
1674:../AR0330.c   **** 
1675:../AR0330.c   ****     return;
 2621              		.loc 1 1675 0
 2622 0020 0000A0E1 		mov	r0, r0	@ nop
1676:../AR0330.c   **** 
1677:../AR0330.c   **** }
 2623              		.loc 1 1677 0
 2624 0024 04D04BE2 		sub	sp, fp, #4
 2625              		@ sp needed
 2626 0028 0088BDE8 		ldmfd	sp!, {fp, pc}
 2627              	.L149:
 2628              		.align	2
 2629              	.L148:
 2630 002c 7C050000 		.word	.LC40
 2631              		.cfi_endproc
 2632              	.LFE30:
 2634              		.section	.rodata
 2635 05a5 000000   		.align	2
 2636              	.LC41:
 2637 05a8 0D43414D 		.ascii	"\015CAMERA_GetSharpness ================ \015\012\000"
 2637      4552415F 
 2637      47657453 
 2637      68617270 
 2637      6E657373 
 2638              		.section	.text.CAMERA_GetSharpness,"ax",%progbits
 2639              		.align	2
 2640              		.global	CAMERA_GetSharpness
 2642              	CAMERA_GetSharpness:
 2643              	.LFB31:
1678:../AR0330.c   **** 
1679:../AR0330.c   **** //
1680:../AR0330.c   **** // FUNCTION NAME.
1681:../AR0330.c   **** //      CAMERA_GetSharpness
1682:../AR0330.c   **** //
1683:../AR0330.c   **** // FUNCTIONAL DESCRIPTION.
1684:../AR0330.c   **** //
1685:../AR0330.c   **** //
1686:../AR0330.c   **** // ENTRY PARAMETERS.
1687:../AR0330.c   **** //      void
1688:../AR0330.c   **** //
1689:../AR0330.c   **** // EXIT PARAMETERS.
1690:../AR0330.c   **** //      Function Return
1691:../AR0330.c   **** //
1692:../AR0330.c   **** int8_t  CAMERA_GetSharpness(uint8_t option)
1693:../AR0330.c   **** {
 2644              		.loc 1 1693 0
 2645              		.cfi_startproc
 2646              		@ args = 0, pretend = 0, frame = 8
 2647              		@ frame_needed = 1, uses_anonymous_args = 0
 2648 0000 00482DE9 		stmfd	sp!, {fp, lr}
 2649              	.LCFI62:
 2650              		.cfi_def_cfa_offset 8
 2651              		.cfi_offset 11, -8
 2652              		.cfi_offset 14, -4
 2653 0004 04B08DE2 		add	fp, sp, #4
 2654              	.LCFI63:
 2655              		.cfi_def_cfa 11, 4
 2656 0008 08D04DE2 		sub	sp, sp, #8
 2657 000c 0030A0E1 		mov	r3, r0
 2658 0010 05304BE5 		strb	r3, [fp, #-5]
1694:../AR0330.c   ****     CyU3PDebugPrint (4, "\rCAMERA_GetSharpness ================ \r\n");
 2659              		.loc 1 1694 0
 2660 0014 0400A0E3 		mov	r0, #4
 2661 0018 18109FE5 		ldr	r1, .L152
 2662 001c FEFFFFEB 		bl	CyU3PDebugPrint
1695:../AR0330.c   **** 
1696:../AR0330.c   **** 
1697:../AR0330.c   **** 
1698:../AR0330.c   ****     return 0;
 2663              		.loc 1 1698 0
 2664 0020 0030A0E3 		mov	r3, #0
 2665 0024 033CA0E1 		mov	r3, r3, asl #24
 2666 0028 433CA0E1 		mov	r3, r3, asr #24
1699:../AR0330.c   **** }
 2667              		.loc 1 1699 0
 2668 002c 0300A0E1 		mov	r0, r3
 2669 0030 04D04BE2 		sub	sp, fp, #4
 2670              		@ sp needed
 2671 0034 0088BDE8 		ldmfd	sp!, {fp, pc}
 2672              	.L153:
 2673              		.align	2
 2674              	.L152:
 2675 0038 A8050000 		.word	.LC41
 2676              		.cfi_endproc
 2677              	.LFE31:
 2679              		.section	.rodata
 2680 05d1 000000   		.align	2
 2681              	.LC42:
 2682 05d4 0D43414D 		.ascii	"\015CAMERA_SetWhiteBalance ================ \015\012"
 2682      4552415F 
 2682      53657457 
 2682      68697465 
 2682      42616C61 
 2683 05ff 00       		.ascii	"\000"
 2684              		.section	.text.CAMERA_SetWhiteBalance,"ax",%progbits
 2685              		.align	2
 2686              		.global	CAMERA_SetWhiteBalance
 2688              	CAMERA_SetWhiteBalance:
 2689              	.LFB32:
1700:../AR0330.c   **** 
1701:../AR0330.c   **** //
1702:../AR0330.c   **** // FUNCTION NAME.
1703:../AR0330.c   **** //      CAMERA_SetWhiteBalance
1704:../AR0330.c   **** //
1705:../AR0330.c   **** // FUNCTIONAL DESCRIPTION.
1706:../AR0330.c   **** //
1707:../AR0330.c   **** //
1708:../AR0330.c   **** // ENTRY PARAMETERS.
1709:../AR0330.c   **** //      void
1710:../AR0330.c   **** //
1711:../AR0330.c   **** // EXIT PARAMETERS.
1712:../AR0330.c   **** //      Function Return
1713:../AR0330.c   **** //
1714:../AR0330.c   **** 
1715:../AR0330.c   **** void    CAMERA_SetWhiteBalance(uint8_t WhiteBalance)
1716:../AR0330.c   **** {
 2690              		.loc 1 1716 0
 2691              		.cfi_startproc
 2692              		@ args = 0, pretend = 0, frame = 8
 2693              		@ frame_needed = 1, uses_anonymous_args = 0
 2694 0000 00482DE9 		stmfd	sp!, {fp, lr}
 2695              	.LCFI64:
 2696              		.cfi_def_cfa_offset 8
 2697              		.cfi_offset 11, -8
 2698              		.cfi_offset 14, -4
 2699 0004 04B08DE2 		add	fp, sp, #4
 2700              	.LCFI65:
 2701              		.cfi_def_cfa 11, 4
 2702 0008 08D04DE2 		sub	sp, sp, #8
 2703 000c 0030A0E1 		mov	r3, r0
 2704 0010 05304BE5 		strb	r3, [fp, #-5]
1717:../AR0330.c   ****     CyU3PDebugPrint (4, "\rCAMERA_SetWhiteBalance ================ \r\n");
 2705              		.loc 1 1717 0
 2706 0014 0400A0E3 		mov	r0, #4
 2707 0018 0C109FE5 		ldr	r1, .L156
 2708 001c FEFFFFEB 		bl	CyU3PDebugPrint
1718:../AR0330.c   **** 
1719:../AR0330.c   ****     return;
 2709              		.loc 1 1719 0
 2710 0020 0000A0E1 		mov	r0, r0	@ nop
1720:../AR0330.c   **** }
 2711              		.loc 1 1720 0
 2712 0024 04D04BE2 		sub	sp, fp, #4
 2713              		@ sp needed
 2714 0028 0088BDE8 		ldmfd	sp!, {fp, pc}
 2715              	.L157:
 2716              		.align	2
 2717              	.L156:
 2718 002c D4050000 		.word	.LC42
 2719              		.cfi_endproc
 2720              	.LFE32:
 2722              		.section	.rodata
 2723              		.align	2
 2724              	.LC43:
 2725 0600 0D43414D 		.ascii	"\015CAMERA_GetWhiteBalance ================ \015\012"
 2725      4552415F 
 2725      47657457 
 2725      68697465 
 2725      42616C61 
 2726 062b 00       		.ascii	"\000"
 2727              		.section	.text.CAMERA_GetWhiteBalance,"ax",%progbits
 2728              		.align	2
 2729              		.global	CAMERA_GetWhiteBalance
 2731              	CAMERA_GetWhiteBalance:
 2732              	.LFB33:
1721:../AR0330.c   **** 
1722:../AR0330.c   **** 
1723:../AR0330.c   **** //
1724:../AR0330.c   **** // FUNCTION NAME.
1725:../AR0330.c   **** //      CAMERA_GetWhiteBalance
1726:../AR0330.c   **** //
1727:../AR0330.c   **** // FUNCTIONAL DESCRIPTION.
1728:../AR0330.c   **** //
1729:../AR0330.c   **** //
1730:../AR0330.c   **** // ENTRY PARAMETERS.
1731:../AR0330.c   **** //      void
1732:../AR0330.c   **** //
1733:../AR0330.c   **** // EXIT PARAMETERS.
1734:../AR0330.c   **** //      Function Return
1735:../AR0330.c   **** //
1736:../AR0330.c   **** 
1737:../AR0330.c   **** uint8_t CAMERA_GetWhiteBalance(uint8_t option)
1738:../AR0330.c   **** {
 2733              		.loc 1 1738 0
 2734              		.cfi_startproc
 2735              		@ args = 0, pretend = 0, frame = 8
 2736              		@ frame_needed = 1, uses_anonymous_args = 0
 2737 0000 00482DE9 		stmfd	sp!, {fp, lr}
 2738              	.LCFI66:
 2739              		.cfi_def_cfa_offset 8
 2740              		.cfi_offset 11, -8
 2741              		.cfi_offset 14, -4
 2742 0004 04B08DE2 		add	fp, sp, #4
 2743              	.LCFI67:
 2744              		.cfi_def_cfa 11, 4
 2745 0008 08D04DE2 		sub	sp, sp, #8
 2746 000c 0030A0E1 		mov	r3, r0
 2747 0010 05304BE5 		strb	r3, [fp, #-5]
1739:../AR0330.c   ****     CyU3PDebugPrint (4, "\rCAMERA_GetWhiteBalance ================ \r\n");
 2748              		.loc 1 1739 0
 2749 0014 0400A0E3 		mov	r0, #4
 2750 0018 10109FE5 		ldr	r1, .L160
 2751 001c FEFFFFEB 		bl	CyU3PDebugPrint
1740:../AR0330.c   **** 
1741:../AR0330.c   **** 
1742:../AR0330.c   **** 
1743:../AR0330.c   ****     return 0;
 2752              		.loc 1 1743 0
 2753 0020 0030A0E3 		mov	r3, #0
1744:../AR0330.c   **** }
 2754              		.loc 1 1744 0
 2755 0024 0300A0E1 		mov	r0, r3
 2756 0028 04D04BE2 		sub	sp, fp, #4
 2757              		@ sp needed
 2758 002c 0088BDE8 		ldmfd	sp!, {fp, pc}
 2759              	.L161:
 2760              		.align	2
 2761              	.L160:
 2762 0030 00060000 		.word	.LC43
 2763              		.cfi_endproc
 2764              	.LFE33:
 2766              		.section	.rodata
 2767              		.align	2
 2768              	.LC44:
 2769 062c 0D43414D 		.ascii	"\015CAMERA_SetAutoWhiteBalance ================ \015"
 2769      4552415F 
 2769      53657441 
 2769      75746F57 
 2769      68697465 
 2770 065a 0A00     		.ascii	"\012\000"
 2771              		.section	.text.CAMERA_SetAutoWhiteBalance,"ax",%progbits
 2772              		.align	2
 2773              		.global	CAMERA_SetAutoWhiteBalance
 2775              	CAMERA_SetAutoWhiteBalance:
 2776              	.LFB34:
1745:../AR0330.c   **** 
1746:../AR0330.c   **** void    CAMERA_SetAutoWhiteBalance(uint8_t AutoWhiteBalance)
1747:../AR0330.c   **** {
 2777              		.loc 1 1747 0
 2778              		.cfi_startproc
 2779              		@ args = 0, pretend = 0, frame = 8
 2780              		@ frame_needed = 1, uses_anonymous_args = 0
 2781 0000 00482DE9 		stmfd	sp!, {fp, lr}
 2782              	.LCFI68:
 2783              		.cfi_def_cfa_offset 8
 2784              		.cfi_offset 11, -8
 2785              		.cfi_offset 14, -4
 2786 0004 04B08DE2 		add	fp, sp, #4
 2787              	.LCFI69:
 2788              		.cfi_def_cfa 11, 4
 2789 0008 08D04DE2 		sub	sp, sp, #8
 2790 000c 0030A0E1 		mov	r3, r0
 2791 0010 05304BE5 		strb	r3, [fp, #-5]
1748:../AR0330.c   ****     CyU3PDebugPrint (4, "\rCAMERA_SetAutoWhiteBalance ================ \r\n");
 2792              		.loc 1 1748 0
 2793 0014 0400A0E3 		mov	r0, #4
 2794 0018 0C109FE5 		ldr	r1, .L164
 2795 001c FEFFFFEB 		bl	CyU3PDebugPrint
1749:../AR0330.c   **** 
1750:../AR0330.c   **** 
1751:../AR0330.c   **** 	return;
 2796              		.loc 1 1751 0
 2797 0020 0000A0E1 		mov	r0, r0	@ nop
1752:../AR0330.c   **** }
 2798              		.loc 1 1752 0
 2799 0024 04D04BE2 		sub	sp, fp, #4
 2800              		@ sp needed
 2801 0028 0088BDE8 		ldmfd	sp!, {fp, pc}
 2802              	.L165:
 2803              		.align	2
 2804              	.L164:
 2805 002c 2C060000 		.word	.LC44
 2806              		.cfi_endproc
 2807              	.LFE34:
 2809              		.section	.rodata
 2810              		.align	2
 2811              	.LC45:
 2812 065c 0D43414D 		.ascii	"\015CAMERA_GetAutoWhiteBalance ================ \015"
 2812      4552415F 
 2812      47657441 
 2812      75746F57 
 2812      68697465 
 2813 068a 0A00     		.ascii	"\012\000"
 2814              		.section	.text.CAMERA_GetAutoWhiteBalance,"ax",%progbits
 2815              		.align	2
 2816              		.global	CAMERA_GetAutoWhiteBalance
 2818              	CAMERA_GetAutoWhiteBalance:
 2819              	.LFB35:
1753:../AR0330.c   **** 
1754:../AR0330.c   **** //
1755:../AR0330.c   **** // FUNCTION NAME.
1756:../AR0330.c   **** //      CAMERA_GetAutoWhiteBalance
1757:../AR0330.c   **** //
1758:../AR0330.c   **** // FUNCTIONAL DESCRIPTION.
1759:../AR0330.c   **** //
1760:../AR0330.c   **** //
1761:../AR0330.c   **** // ENTRY PARAMETERS.
1762:../AR0330.c   **** //      void
1763:../AR0330.c   **** //
1764:../AR0330.c   **** // EXIT PARAMETERS.
1765:../AR0330.c   **** //      Function Return
1766:../AR0330.c   **** //
1767:../AR0330.c   **** uint8_t CAMERA_GetAutoWhiteBalance(uint8_t option)
1768:../AR0330.c   **** {
 2820              		.loc 1 1768 0
 2821              		.cfi_startproc
 2822              		@ args = 0, pretend = 0, frame = 8
 2823              		@ frame_needed = 1, uses_anonymous_args = 0
 2824 0000 00482DE9 		stmfd	sp!, {fp, lr}
 2825              	.LCFI70:
 2826              		.cfi_def_cfa_offset 8
 2827              		.cfi_offset 11, -8
 2828              		.cfi_offset 14, -4
 2829 0004 04B08DE2 		add	fp, sp, #4
 2830              	.LCFI71:
 2831              		.cfi_def_cfa 11, 4
 2832 0008 08D04DE2 		sub	sp, sp, #8
 2833 000c 0030A0E1 		mov	r3, r0
 2834 0010 05304BE5 		strb	r3, [fp, #-5]
1769:../AR0330.c   ****     CyU3PDebugPrint (4, "\rCAMERA_GetAutoWhiteBalance ================ \r\n");
 2835              		.loc 1 1769 0
 2836 0014 0400A0E3 		mov	r0, #4
 2837 0018 10109FE5 		ldr	r1, .L168
 2838 001c FEFFFFEB 		bl	CyU3PDebugPrint
1770:../AR0330.c   **** 
1771:../AR0330.c   **** 
1772:../AR0330.c   ****     return 0;
 2839              		.loc 1 1772 0
 2840 0020 0030A0E3 		mov	r3, #0
1773:../AR0330.c   **** }
 2841              		.loc 1 1773 0
 2842 0024 0300A0E1 		mov	r0, r3
 2843 0028 04D04BE2 		sub	sp, fp, #4
 2844              		@ sp needed
 2845 002c 0088BDE8 		ldmfd	sp!, {fp, pc}
 2846              	.L169:
 2847              		.align	2
 2848              	.L168:
 2849 0030 5C060000 		.word	.LC45
 2850              		.cfi_endproc
 2851              	.LFE35:
 2853              		.section	.rodata
 2854              		.align	2
 2855              	.LC46:
 2856 068c 0D43414D 		.ascii	"\015CAMERA_SetExposure ================ \015\012\000"
 2856      4552415F 
 2856      53657445 
 2856      78706F73 
 2856      75726520 
 2857              		.section	.text.CAMERA_SetExposure,"ax",%progbits
 2858              		.align	2
 2859              		.global	CAMERA_SetExposure
 2861              	CAMERA_SetExposure:
 2862              	.LFB36:
1774:../AR0330.c   **** 
1775:../AR0330.c   **** 
1776:../AR0330.c   **** void    CAMERA_SetExposure(int32_t Exposure)
1777:../AR0330.c   **** {
 2863              		.loc 1 1777 0
 2864              		.cfi_startproc
 2865              		@ args = 0, pretend = 0, frame = 8
 2866              		@ frame_needed = 1, uses_anonymous_args = 0
 2867 0000 00482DE9 		stmfd	sp!, {fp, lr}
 2868              	.LCFI72:
 2869              		.cfi_def_cfa_offset 8
 2870              		.cfi_offset 11, -8
 2871              		.cfi_offset 14, -4
 2872 0004 04B08DE2 		add	fp, sp, #4
 2873              	.LCFI73:
 2874              		.cfi_def_cfa 11, 4
 2875 0008 08D04DE2 		sub	sp, sp, #8
 2876 000c 08000BE5 		str	r0, [fp, #-8]
1778:../AR0330.c   ****     CyU3PDebugPrint (4, "\rCAMERA_SetExposure ================ \r\n");
 2877              		.loc 1 1778 0
 2878 0010 0400A0E3 		mov	r0, #4
 2879 0014 0C109FE5 		ldr	r1, .L172
 2880 0018 FEFFFFEB 		bl	CyU3PDebugPrint
1779:../AR0330.c   **** 
1780:../AR0330.c   **** 	return;
 2881              		.loc 1 1780 0
 2882 001c 0000A0E1 		mov	r0, r0	@ nop
1781:../AR0330.c   **** }
 2883              		.loc 1 1781 0
 2884 0020 04D04BE2 		sub	sp, fp, #4
 2885              		@ sp needed
 2886 0024 0088BDE8 		ldmfd	sp!, {fp, pc}
 2887              	.L173:
 2888              		.align	2
 2889              	.L172:
 2890 0028 8C060000 		.word	.LC46
 2891              		.cfi_endproc
 2892              	.LFE36:
 2894              		.section	.rodata
 2895              		.align	2
 2896              	.LC47:
 2897 06b4 0D43414D 		.ascii	"\015CAMERA_GetExposure ================ \015\012\000"
 2897      4552415F 
 2897      47657445 
 2897      78706F73 
 2897      75726520 
 2898              		.section	.text.CAMERA_GetExposure,"ax",%progbits
 2899              		.align	2
 2900              		.global	CAMERA_GetExposure
 2902              	CAMERA_GetExposure:
 2903              	.LFB37:
1782:../AR0330.c   **** 
1783:../AR0330.c   **** //
1784:../AR0330.c   **** // FUNCTION NAME.
1785:../AR0330.c   **** //      CAMERA_GetExposure
1786:../AR0330.c   **** //
1787:../AR0330.c   **** // FUNCTIONAL DESCRIPTION.
1788:../AR0330.c   **** //
1789:../AR0330.c   **** //
1790:../AR0330.c   **** // ENTRY PARAMETERS.
1791:../AR0330.c   **** //      void
1792:../AR0330.c   **** //
1793:../AR0330.c   **** // EXIT PARAMETERS.
1794:../AR0330.c   **** //      Function Return
1795:../AR0330.c   **** //
1796:../AR0330.c   **** int32_t CAMERA_GetExposure(uint8_t option)
1797:../AR0330.c   **** {
 2904              		.loc 1 1797 0
 2905              		.cfi_startproc
 2906              		@ args = 0, pretend = 0, frame = 24
 2907              		@ frame_needed = 1, uses_anonymous_args = 0
 2908 0000 00482DE9 		stmfd	sp!, {fp, lr}
 2909              	.LCFI74:
 2910              		.cfi_def_cfa_offset 8
 2911              		.cfi_offset 11, -8
 2912              		.cfi_offset 14, -4
 2913 0004 04B08DE2 		add	fp, sp, #4
 2914              	.LCFI75:
 2915              		.cfi_def_cfa 11, 4
 2916 0008 18D04DE2 		sub	sp, sp, #24
 2917 000c 0030A0E1 		mov	r3, r0
 2918 0010 15304BE5 		strb	r3, [fp, #-21]
1798:../AR0330.c   **** 
1799:../AR0330.c   **** 
1800:../AR0330.c   **** 	CyBool_t clr_error_count;
1801:../AR0330.c   **** 	CyU3PMipicsiErrorCounts_t error_count;
1802:../AR0330.c   **** 
1803:../AR0330.c   ****     CyU3PDebugPrint (4, "\rCAMERA_GetExposure ================ \r\n");
 2919              		.loc 1 1803 0
 2920 0014 0400A0E3 		mov	r0, #4
 2921 0018 E4109FE5 		ldr	r1, .L176
 2922 001c FEFFFFEB 		bl	CyU3PDebugPrint
1804:../AR0330.c   **** 
1805:../AR0330.c   ****     CyU3PMipicsiGetErrors(clr_error_count, &error_count);
 2923              		.loc 1 1805 0
 2924 0020 14304BE2 		sub	r3, fp, #20
 2925 0024 08001BE5 		ldr	r0, [fp, #-8]
 2926 0028 0310A0E1 		mov	r1, r3
 2927 002c FEFFFFEB 		bl	CyU3PMipicsiGetErrors
1806:../AR0330.c   ****     CyU3PDebugPrint (4, "\rError count %d \r\n", clr_error_count);
 2928              		.loc 1 1806 0
 2929 0030 0400A0E3 		mov	r0, #4
 2930 0034 CC109FE5 		ldr	r1, .L176+4
 2931 0038 08201BE5 		ldr	r2, [fp, #-8]
 2932 003c FEFFFFEB 		bl	CyU3PDebugPrint
1807:../AR0330.c   **** 
1808:../AR0330.c   ****     CyU3PDebugPrint (4, "\rfrmErrCnt =  %d \r\n", error_count.frmErrCnt);
 2933              		.loc 1 1808 0
 2934 0040 14305BE5 		ldrb	r3, [fp, #-20]	@ zero_extendqisi2
 2935 0044 0400A0E3 		mov	r0, #4
 2936 0048 BC109FE5 		ldr	r1, .L176+8
 2937 004c 0320A0E1 		mov	r2, r3
 2938 0050 FEFFFFEB 		bl	CyU3PDebugPrint
1809:../AR0330.c   ****     CyU3PDebugPrint (4, "\rcrcErrCnt =  %d \r\n", error_count.crcErrCnt);
 2939              		.loc 1 1809 0
 2940 0054 13305BE5 		ldrb	r3, [fp, #-19]	@ zero_extendqisi2
 2941 0058 0400A0E3 		mov	r0, #4
 2942 005c AC109FE5 		ldr	r1, .L176+12
 2943 0060 0320A0E1 		mov	r2, r3
 2944 0064 FEFFFFEB 		bl	CyU3PDebugPrint
1810:../AR0330.c   ****     CyU3PDebugPrint (4, "\rmdlErrCnt =  %d \r\n", error_count.mdlErrCnt);
 2945              		.loc 1 1810 0
 2946 0068 12305BE5 		ldrb	r3, [fp, #-18]	@ zero_extendqisi2
 2947 006c 0400A0E3 		mov	r0, #4
 2948 0070 9C109FE5 		ldr	r1, .L176+16
 2949 0074 0320A0E1 		mov	r2, r3
 2950 0078 FEFFFFEB 		bl	CyU3PDebugPrint
1811:../AR0330.c   ****     CyU3PDebugPrint (4, "\rctlErrCnt =  %d \r\n", error_count.ctlErrCnt);
 2951              		.loc 1 1811 0
 2952 007c 11305BE5 		ldrb	r3, [fp, #-17]	@ zero_extendqisi2
 2953 0080 0400A0E3 		mov	r0, #4
 2954 0084 8C109FE5 		ldr	r1, .L176+20
 2955 0088 0320A0E1 		mov	r2, r3
 2956 008c FEFFFFEB 		bl	CyU3PDebugPrint
1812:../AR0330.c   **** 
1813:../AR0330.c   ****     CyU3PDebugPrint (4, "\reidErrCnt =  %d \r\n", error_count.eidErrCnt);
 2957              		.loc 1 1813 0
 2958 0090 10305BE5 		ldrb	r3, [fp, #-16]	@ zero_extendqisi2
 2959 0094 0400A0E3 		mov	r0, #4
 2960 0098 7C109FE5 		ldr	r1, .L176+24
 2961 009c 0320A0E1 		mov	r2, r3
 2962 00a0 FEFFFFEB 		bl	CyU3PDebugPrint
1814:../AR0330.c   ****     CyU3PDebugPrint (4, "\rrecrErrCnt =  %d \r\n", error_count.recrErrCnt);
 2963              		.loc 1 1814 0
 2964 00a4 0F305BE5 		ldrb	r3, [fp, #-15]	@ zero_extendqisi2
 2965 00a8 0400A0E3 		mov	r0, #4
 2966 00ac 6C109FE5 		ldr	r1, .L176+28
 2967 00b0 0320A0E1 		mov	r2, r3
 2968 00b4 FEFFFFEB 		bl	CyU3PDebugPrint
1815:../AR0330.c   ****     CyU3PDebugPrint (4, "\runrcErrCnt =  %d \r\n", error_count.unrcErrCnt);
 2969              		.loc 1 1815 0
 2970 00b8 0E305BE5 		ldrb	r3, [fp, #-14]	@ zero_extendqisi2
 2971 00bc 0400A0E3 		mov	r0, #4
 2972 00c0 5C109FE5 		ldr	r1, .L176+32
 2973 00c4 0320A0E1 		mov	r2, r3
 2974 00c8 FEFFFFEB 		bl	CyU3PDebugPrint
1816:../AR0330.c   ****     CyU3PDebugPrint (4, "\rrecSyncErrCnt =  %d \r\n", error_count.recSyncErrCnt);
 2975              		.loc 1 1816 0
 2976 00cc 0D305BE5 		ldrb	r3, [fp, #-13]	@ zero_extendqisi2
 2977 00d0 0400A0E3 		mov	r0, #4
 2978 00d4 4C109FE5 		ldr	r1, .L176+36
 2979 00d8 0320A0E1 		mov	r2, r3
 2980 00dc FEFFFFEB 		bl	CyU3PDebugPrint
1817:../AR0330.c   ****     CyU3PDebugPrint (4, "\runrSyncErrCnt =  %d \r\n", error_count.unrSyncErrCnt);
 2981              		.loc 1 1817 0
 2982 00e0 0C305BE5 		ldrb	r3, [fp, #-12]	@ zero_extendqisi2
 2983 00e4 0400A0E3 		mov	r0, #4
 2984 00e8 3C109FE5 		ldr	r1, .L176+40
 2985 00ec 0320A0E1 		mov	r2, r3
 2986 00f0 FEFFFFEB 		bl	CyU3PDebugPrint
1818:../AR0330.c   **** 
1819:../AR0330.c   ****     return 0;
 2987              		.loc 1 1819 0
 2988 00f4 0030A0E3 		mov	r3, #0
1820:../AR0330.c   **** }
 2989              		.loc 1 1820 0
 2990 00f8 0300A0E1 		mov	r0, r3
 2991 00fc 04D04BE2 		sub	sp, fp, #4
 2992              		@ sp needed
 2993 0100 0088BDE8 		ldmfd	sp!, {fp, pc}
 2994              	.L177:
 2995              		.align	2
 2996              	.L176:
 2997 0104 B4060000 		.word	.LC47
 2998 0108 28040000 		.word	.LC27
 2999 010c 3C040000 		.word	.LC28
 3000 0110 50040000 		.word	.LC29
 3001 0114 64040000 		.word	.LC30
 3002 0118 78040000 		.word	.LC31
 3003 011c 8C040000 		.word	.LC32
 3004 0120 A0040000 		.word	.LC33
 3005 0124 B8040000 		.word	.LC34
 3006 0128 D0040000 		.word	.LC35
 3007 012c E8040000 		.word	.LC36
 3008              		.cfi_endproc
 3009              	.LFE37:
 3011              		.section	.rodata
 3012              		.align	2
 3013              	.LC48:
 3014 06dc 0D43414D 		.ascii	"\015CAMERA_SetAutofocus ================ \015\012\000"
 3014      4552415F 
 3014      53657441 
 3014      75746F66 
 3014      6F637573 
 3015              		.section	.text.CAMERA_SetAutofocus,"ax",%progbits
 3016              		.align	2
 3017              		.global	CAMERA_SetAutofocus
 3019              	CAMERA_SetAutofocus:
 3020              	.LFB38:
1821:../AR0330.c   **** 
1822:../AR0330.c   **** 
1823:../AR0330.c   **** //
1824:../AR0330.c   **** // FUNCTION NAME.
1825:../AR0330.c   **** //      CAMERA_SetAutofocus
1826:../AR0330.c   **** //
1827:../AR0330.c   **** // FUNCTIONAL DESCRIPTION.
1828:../AR0330.c   **** //
1829:../AR0330.c   **** //
1830:../AR0330.c   **** // ENTRY PARAMETERS.
1831:../AR0330.c   **** //      void
1832:../AR0330.c   **** //
1833:../AR0330.c   **** // EXIT PARAMETERS.
1834:../AR0330.c   **** //      Function Return
1835:../AR0330.c   **** //
1836:../AR0330.c   **** void    CAMERA_SetAutofocus(uint8_t Is_Enable)
1837:../AR0330.c   **** {
 3021              		.loc 1 1837 0
 3022              		.cfi_startproc
 3023              		@ args = 0, pretend = 0, frame = 8
 3024              		@ frame_needed = 1, uses_anonymous_args = 0
 3025 0000 00482DE9 		stmfd	sp!, {fp, lr}
 3026              	.LCFI76:
 3027              		.cfi_def_cfa_offset 8
 3028              		.cfi_offset 11, -8
 3029              		.cfi_offset 14, -4
 3030 0004 04B08DE2 		add	fp, sp, #4
 3031              	.LCFI77:
 3032              		.cfi_def_cfa 11, 4
 3033 0008 08D04DE2 		sub	sp, sp, #8
 3034 000c 0030A0E1 		mov	r3, r0
 3035 0010 05304BE5 		strb	r3, [fp, #-5]
1838:../AR0330.c   ****     CyU3PDebugPrint (4, "\rCAMERA_SetAutofocus ================ \r\n");
 3036              		.loc 1 1838 0
 3037 0014 0400A0E3 		mov	r0, #4
 3038 0018 0C109FE5 		ldr	r1, .L180
 3039 001c FEFFFFEB 		bl	CyU3PDebugPrint
1839:../AR0330.c   **** 
1840:../AR0330.c   **** 
1841:../AR0330.c   ****     return;
 3040              		.loc 1 1841 0
 3041 0020 0000A0E1 		mov	r0, r0	@ nop
1842:../AR0330.c   **** }
 3042              		.loc 1 1842 0
 3043 0024 04D04BE2 		sub	sp, fp, #4
 3044              		@ sp needed
 3045 0028 0088BDE8 		ldmfd	sp!, {fp, pc}
 3046              	.L181:
 3047              		.align	2
 3048              	.L180:
 3049 002c DC060000 		.word	.LC48
 3050              		.cfi_endproc
 3051              	.LFE38:
 3053              		.section	.rodata
 3054 0705 000000   		.align	2
 3055              	.LC49:
 3056 0708 0D43414D 		.ascii	"\015CAMERA_GetAutofocus ================ \015\012\000"
 3056      4552415F 
 3056      47657441 
 3056      75746F66 
 3056      6F637573 
 3057              		.section	.text.CAMERA_GetAutofocus,"ax",%progbits
 3058              		.align	2
 3059              		.global	CAMERA_GetAutofocus
 3061              	CAMERA_GetAutofocus:
 3062              	.LFB39:
1843:../AR0330.c   **** 
1844:../AR0330.c   **** 
1845:../AR0330.c   **** //
1846:../AR0330.c   **** // FUNCTION NAME.
1847:../AR0330.c   **** //      CAMERA_GetAutofocus
1848:../AR0330.c   **** //
1849:../AR0330.c   **** // FUNCTIONAL DESCRIPTION.
1850:../AR0330.c   **** //
1851:../AR0330.c   **** //
1852:../AR0330.c   **** // ENTRY PARAMETERS.
1853:../AR0330.c   **** //      void
1854:../AR0330.c   **** //
1855:../AR0330.c   **** // EXIT PARAMETERS.
1856:../AR0330.c   **** //      Function Return
1857:../AR0330.c   **** //
1858:../AR0330.c   **** uint8_t CAMERA_GetAutofocus(uint8_t option)
1859:../AR0330.c   **** {
 3063              		.loc 1 1859 0
 3064              		.cfi_startproc
 3065              		@ args = 0, pretend = 0, frame = 8
 3066              		@ frame_needed = 1, uses_anonymous_args = 0
 3067 0000 00482DE9 		stmfd	sp!, {fp, lr}
 3068              	.LCFI78:
 3069              		.cfi_def_cfa_offset 8
 3070              		.cfi_offset 11, -8
 3071              		.cfi_offset 14, -4
 3072 0004 04B08DE2 		add	fp, sp, #4
 3073              	.LCFI79:
 3074              		.cfi_def_cfa 11, 4
 3075 0008 08D04DE2 		sub	sp, sp, #8
 3076 000c 0030A0E1 		mov	r3, r0
 3077 0010 05304BE5 		strb	r3, [fp, #-5]
1860:../AR0330.c   ****     CyU3PDebugPrint (4, "\rCAMERA_GetAutofocus ================ \r\n");
 3078              		.loc 1 1860 0
 3079 0014 0400A0E3 		mov	r0, #4
 3080 0018 10109FE5 		ldr	r1, .L184
 3081 001c FEFFFFEB 		bl	CyU3PDebugPrint
1861:../AR0330.c   **** 
1862:../AR0330.c   ****     return 0;
 3082              		.loc 1 1862 0
 3083 0020 0030A0E3 		mov	r3, #0
1863:../AR0330.c   **** }
 3084              		.loc 1 1863 0
 3085 0024 0300A0E1 		mov	r0, r3
 3086 0028 04D04BE2 		sub	sp, fp, #4
 3087              		@ sp needed
 3088 002c 0088BDE8 		ldmfd	sp!, {fp, pc}
 3089              	.L185:
 3090              		.align	2
 3091              	.L184:
 3092 0030 08070000 		.word	.LC49
 3093              		.cfi_endproc
 3094              	.LFE39:
 3096              		.section	.rodata
 3097 0731 000000   		.align	2
 3098              	.LC50:
 3099 0734 0D43414D 		.ascii	"\015CAMERA_SetManualfocus ================ \015\012"
 3099      4552415F 
 3099      5365744D 
 3099      616E7561 
 3099      6C666F63 
 3100 075e 00       		.ascii	"\000"
 3101              		.section	.text.CAMERA_SetManualfocus,"ax",%progbits
 3102              		.align	2
 3103              		.global	CAMERA_SetManualfocus
 3105              	CAMERA_SetManualfocus:
 3106              	.LFB40:
1864:../AR0330.c   **** 
1865:../AR0330.c   **** //
1866:../AR0330.c   **** // FUNCTION NAME.
1867:../AR0330.c   **** //      CAMERA_SetManualfocus
1868:../AR0330.c   **** //
1869:../AR0330.c   **** // FUNCTIONAL DESCRIPTION.
1870:../AR0330.c   **** //
1871:../AR0330.c   **** //
1872:../AR0330.c   **** // ENTRY PARAMETERS.
1873:../AR0330.c   **** //      void
1874:../AR0330.c   **** //
1875:../AR0330.c   **** // EXIT PARAMETERS.
1876:../AR0330.c   **** //      Function Return
1877:../AR0330.c   **** //
1878:../AR0330.c   **** 
1879:../AR0330.c   **** void    CAMERA_SetManualfocus(uint16_t manualfocus)
1880:../AR0330.c   **** {
 3107              		.loc 1 1880 0
 3108              		.cfi_startproc
 3109              		@ args = 0, pretend = 0, frame = 8
 3110              		@ frame_needed = 1, uses_anonymous_args = 0
 3111 0000 00482DE9 		stmfd	sp!, {fp, lr}
 3112              	.LCFI80:
 3113              		.cfi_def_cfa_offset 8
 3114              		.cfi_offset 11, -8
 3115              		.cfi_offset 14, -4
 3116 0004 04B08DE2 		add	fp, sp, #4
 3117              	.LCFI81:
 3118              		.cfi_def_cfa 11, 4
 3119 0008 08D04DE2 		sub	sp, sp, #8
 3120 000c 0030A0E1 		mov	r3, r0
 3121 0010 B6304BE1 		strh	r3, [fp, #-6]	@ movhi
1881:../AR0330.c   ****     CyU3PDebugPrint (4, "\rCAMERA_SetManualfocus ================ \r\n");
 3122              		.loc 1 1881 0
 3123 0014 0400A0E3 		mov	r0, #4
 3124 0018 0C109FE5 		ldr	r1, .L188
 3125 001c FEFFFFEB 		bl	CyU3PDebugPrint
1882:../AR0330.c   **** 
1883:../AR0330.c   ****     return;
 3126              		.loc 1 1883 0
 3127 0020 0000A0E1 		mov	r0, r0	@ nop
1884:../AR0330.c   **** }
 3128              		.loc 1 1884 0
 3129 0024 04D04BE2 		sub	sp, fp, #4
 3130              		@ sp needed
 3131 0028 0088BDE8 		ldmfd	sp!, {fp, pc}
 3132              	.L189:
 3133              		.align	2
 3134              	.L188:
 3135 002c 34070000 		.word	.LC50
 3136              		.cfi_endproc
 3137              	.LFE40:
 3139              		.section	.rodata
 3140 075f 00       		.align	2
 3141              	.LC51:
 3142 0760 0D43414D 		.ascii	"\015CAMERA_GetManualfocus ================ \015\012"
 3142      4552415F 
 3142      4765744D 
 3142      616E7561 
 3142      6C666F63 
 3143 078a 00       		.ascii	"\000"
 3144              		.section	.text.CAMERA_GetManualfocus,"ax",%progbits
 3145              		.align	2
 3146              		.global	CAMERA_GetManualfocus
 3148              	CAMERA_GetManualfocus:
 3149              	.LFB41:
1885:../AR0330.c   **** 
1886:../AR0330.c   **** 
1887:../AR0330.c   **** //
1888:../AR0330.c   **** // FUNCTION NAME.
1889:../AR0330.c   **** //      CAMERA_GetManualfocus
1890:../AR0330.c   **** //
1891:../AR0330.c   **** // FUNCTIONAL DESCRIPTION.
1892:../AR0330.c   **** //
1893:../AR0330.c   **** //
1894:../AR0330.c   **** // ENTRY PARAMETERS.
1895:../AR0330.c   **** //      void
1896:../AR0330.c   **** //
1897:../AR0330.c   **** // EXIT PARAMETERS.
1898:../AR0330.c   **** //      Function Return
1899:../AR0330.c   **** //
1900:../AR0330.c   **** 
1901:../AR0330.c   **** uint16_t CAMERA_GetManualfocus(uint8_t option)
1902:../AR0330.c   **** {
 3150              		.loc 1 1902 0
 3151              		.cfi_startproc
 3152              		@ args = 0, pretend = 0, frame = 8
 3153              		@ frame_needed = 1, uses_anonymous_args = 0
 3154 0000 00482DE9 		stmfd	sp!, {fp, lr}
 3155              	.LCFI82:
 3156              		.cfi_def_cfa_offset 8
 3157              		.cfi_offset 11, -8
 3158              		.cfi_offset 14, -4
 3159 0004 04B08DE2 		add	fp, sp, #4
 3160              	.LCFI83:
 3161              		.cfi_def_cfa 11, 4
 3162 0008 08D04DE2 		sub	sp, sp, #8
 3163 000c 0030A0E1 		mov	r3, r0
 3164 0010 05304BE5 		strb	r3, [fp, #-5]
1903:../AR0330.c   ****     CyU3PDebugPrint (4, "\rCAMERA_GetManualfocus ================ \r\n");
 3165              		.loc 1 1903 0
 3166 0014 0400A0E3 		mov	r0, #4
 3167 0018 10109FE5 		ldr	r1, .L192
 3168 001c FEFFFFEB 		bl	CyU3PDebugPrint
1904:../AR0330.c   **** 
1905:../AR0330.c   ****     return 0;
 3169              		.loc 1 1905 0
 3170 0020 0030A0E3 		mov	r3, #0
1906:../AR0330.c   **** }
 3171              		.loc 1 1906 0
 3172 0024 0300A0E1 		mov	r0, r3
 3173 0028 04D04BE2 		sub	sp, fp, #4
 3174              		@ sp needed
 3175 002c 0088BDE8 		ldmfd	sp!, {fp, pc}
 3176              	.L193:
 3177              		.align	2
 3178              	.L192:
 3179 0030 60070000 		.word	.LC51
 3180              		.cfi_endproc
 3181              	.LFE41:
 3183              		.section	.rodata
 3184 078b 00       		.align	2
 3185              	.LC52:
 3186 078c 0D43414D 		.ascii	"\015CAMERA_SetAutoExposure ================ \015\012"
 3186      4552415F 
 3186      53657441 
 3186      75746F45 
 3186      78706F73 
 3187 07b7 00       		.ascii	"\000"
 3188              		.section	.text.CAMERA_SetAutoExposure,"ax",%progbits
 3189              		.align	2
 3190              		.global	CAMERA_SetAutoExposure
 3192              	CAMERA_SetAutoExposure:
 3193              	.LFB42:
1907:../AR0330.c   **** 
1908:../AR0330.c   **** 
1909:../AR0330.c   **** //
1910:../AR0330.c   **** // FUNCTION NAME.
1911:../AR0330.c   **** //      CAMERA_SetAutoExposure
1912:../AR0330.c   **** //
1913:../AR0330.c   **** // FUNCTIONAL DESCRIPTION.
1914:../AR0330.c   **** //
1915:../AR0330.c   **** //
1916:../AR0330.c   **** // ENTRY PARAMETERS.
1917:../AR0330.c   **** //      void
1918:../AR0330.c   **** //
1919:../AR0330.c   **** // EXIT PARAMETERS.
1920:../AR0330.c   **** //      Function Return
1921:../AR0330.c   **** //
1922:../AR0330.c   **** 
1923:../AR0330.c   **** void    CAMERA_SetAutoExposure(uint8_t AutoExp)
1924:../AR0330.c   **** {
 3194              		.loc 1 1924 0
 3195              		.cfi_startproc
 3196              		@ args = 0, pretend = 0, frame = 8
 3197              		@ frame_needed = 1, uses_anonymous_args = 0
 3198 0000 00482DE9 		stmfd	sp!, {fp, lr}
 3199              	.LCFI84:
 3200              		.cfi_def_cfa_offset 8
 3201              		.cfi_offset 11, -8
 3202              		.cfi_offset 14, -4
 3203 0004 04B08DE2 		add	fp, sp, #4
 3204              	.LCFI85:
 3205              		.cfi_def_cfa 11, 4
 3206 0008 08D04DE2 		sub	sp, sp, #8
 3207 000c 0030A0E1 		mov	r3, r0
 3208 0010 05304BE5 		strb	r3, [fp, #-5]
1925:../AR0330.c   ****     CyU3PDebugPrint (4, "\rCAMERA_SetAutoExposure ================ \r\n");
 3209              		.loc 1 1925 0
 3210 0014 0400A0E3 		mov	r0, #4
 3211 0018 0C109FE5 		ldr	r1, .L196
 3212 001c FEFFFFEB 		bl	CyU3PDebugPrint
1926:../AR0330.c   **** 
1927:../AR0330.c   **** 	return;
 3213              		.loc 1 1927 0
 3214 0020 0000A0E1 		mov	r0, r0	@ nop
1928:../AR0330.c   **** }
 3215              		.loc 1 1928 0
 3216 0024 04D04BE2 		sub	sp, fp, #4
 3217              		@ sp needed
 3218 0028 0088BDE8 		ldmfd	sp!, {fp, pc}
 3219              	.L197:
 3220              		.align	2
 3221              	.L196:
 3222 002c 8C070000 		.word	.LC52
 3223              		.cfi_endproc
 3224              	.LFE42:
 3226              		.section	.rodata
 3227              		.align	2
 3228              	.LC53:
 3229 07b8 0D43414D 		.ascii	"\015CAMERA_GetAutoExposure ================ \015\012"
 3229      4552415F 
 3229      47657441 
 3229      75746F45 
 3229      78706F73 
 3230 07e3 00       		.ascii	"\000"
 3231              		.section	.text.CAMERA_GetAutoExposure,"ax",%progbits
 3232              		.align	2
 3233              		.global	CAMERA_GetAutoExposure
 3235              	CAMERA_GetAutoExposure:
 3236              	.LFB43:
1929:../AR0330.c   **** 
1930:../AR0330.c   **** //
1931:../AR0330.c   **** // FUNCTION NAME.
1932:../AR0330.c   **** //      CAMERA_GetAutoExposure
1933:../AR0330.c   **** //
1934:../AR0330.c   **** // FUNCTIONAL DESCRIPTION.
1935:../AR0330.c   **** //
1936:../AR0330.c   **** //
1937:../AR0330.c   **** // ENTRY PARAMETERS.
1938:../AR0330.c   **** //      void
1939:../AR0330.c   **** //
1940:../AR0330.c   **** // EXIT PARAMETERS.
1941:../AR0330.c   **** //      Function Return
1942:../AR0330.c   **** //
1943:../AR0330.c   **** 
1944:../AR0330.c   **** uint8_t CAMERA_GetAutoExposure(uint8_t option)
1945:../AR0330.c   **** {
 3237              		.loc 1 1945 0
 3238              		.cfi_startproc
 3239              		@ args = 0, pretend = 0, frame = 8
 3240              		@ frame_needed = 1, uses_anonymous_args = 0
 3241 0000 00482DE9 		stmfd	sp!, {fp, lr}
 3242              	.LCFI86:
 3243              		.cfi_def_cfa_offset 8
 3244              		.cfi_offset 11, -8
 3245              		.cfi_offset 14, -4
 3246 0004 04B08DE2 		add	fp, sp, #4
 3247              	.LCFI87:
 3248              		.cfi_def_cfa 11, 4
 3249 0008 08D04DE2 		sub	sp, sp, #8
 3250 000c 0030A0E1 		mov	r3, r0
 3251 0010 05304BE5 		strb	r3, [fp, #-5]
1946:../AR0330.c   ****     CyU3PDebugPrint (4, "\rCAMERA_GetAutoExposure ================ \r\n");
 3252              		.loc 1 1946 0
 3253 0014 0400A0E3 		mov	r0, #4
 3254 0018 10109FE5 		ldr	r1, .L200
 3255 001c FEFFFFEB 		bl	CyU3PDebugPrint
1947:../AR0330.c   **** 
1948:../AR0330.c   **** 
1949:../AR0330.c   **** 
1950:../AR0330.c   **** 	return 0;
 3256              		.loc 1 1950 0
 3257 0020 0030A0E3 		mov	r3, #0
1951:../AR0330.c   **** }
 3258              		.loc 1 1951 0
 3259 0024 0300A0E1 		mov	r0, r3
 3260 0028 04D04BE2 		sub	sp, fp, #4
 3261              		@ sp needed
 3262 002c 0088BDE8 		ldmfd	sp!, {fp, pc}
 3263              	.L201:
 3264              		.align	2
 3265              	.L200:
 3266 0030 B8070000 		.word	.LC53
 3267              		.cfi_endproc
 3268              	.LFE43:
 3270              		.text
 3271              	.Letext0:
 3272              		.file 2 "c:\\program files (x86)\\cypress\\ez-usb fx3 sdk\\1.3\\arm gcc\\arm-none-eabi\\include\\s
 3273              		.file 3 "C:\\Program Files (x86)\\Cypress\\EZ-USB FX3 SDK\\1.3\\\\firmware\\u3p_firmware\\inc/cyu3
 3274              		.file 4 "C:\\Program Files (x86)\\Cypress\\EZ-USB FX3 SDK\\1.3\\\\firmware\\u3p_firmware\\inc/cyu3
 3275              		.file 5 "C:\\Program Files (x86)\\Cypress\\EZ-USB FX3 SDK\\1.3\\\\firmware\\u3p_firmware\\inc/cyu3
 3276              		.file 6 "C:\\Program Files (x86)\\Cypress\\EZ-USB FX3 SDK\\1.3\\\\firmware\\u3p_firmware\\inc/cyu3
 3277              		.file 7 "C:\\Program Files (x86)\\Cypress\\EZ-USB FX3 SDK\\1.3\\\\firmware\\u3p_firmware\\inc/cyu3
 3278              		.file 8 "../AR0330.h"